Component: ARM Compiler 5.06 update 3 (build 300) Tool: armlink [4d35c9]

==============================================================================

Section Cross References

    startup.o(i.assert_failed) refers to kservice.o(i.rt_kprintf) for rt_kprintf
    startup.o(i.main) refers to clk.o(i.CLK_EnableXtalRC) for CLK_EnableXtalRC
    startup.o(i.main) refers to clk.o(i.CLK_WaitClockReady) for CLK_WaitClockReady
    startup.o(i.main) refers to clk.o(i.CLK_SetHCLK) for CLK_SetHCLK
    startup.o(i.main) refers to clk.o(i.CLK_SetCoreClock) for CLK_SetCoreClock
    startup.o(i.main) refers to clk.o(i.CLK_EnableModuleClock) for CLK_EnableModuleClock
    startup.o(i.main) refers to clk.o(i.CLK_SetModuleClock) for CLK_SetModuleClock
    startup.o(i.main) refers to sys.o(i.SYS_ResetModule) for SYS_ResetModule
    startup.o(i.main) refers to uart.o(i.UART_Open) for UART_Open
    startup.o(i.main) refers to printf1.o(i.__0printf$1) for __2printf
    startup.o(i.main) refers to context_rvds.o(.text) for rt_hw_interrupt_disable
    startup.o(i.main) refers to board.o(i.rt_hw_board_init) for rt_hw_board_init
    startup.o(i.main) refers to kservice.o(i.rt_show_version) for rt_show_version
    startup.o(i.main) refers to src_timer.o(i.rt_system_timer_init) for rt_system_timer_init
    startup.o(i.main) refers to mem.o(i.rt_system_heap_init) for rt_system_heap_init
    startup.o(i.main) refers to scheduler.o(i.rt_system_scheduler_init) for rt_system_scheduler_init
    startup.o(i.main) refers to startup.o(i.rt_application_init) for rt_application_init
    startup.o(i.main) refers to src_timer.o(i.rt_system_timer_thread_init) for rt_system_timer_thread_init
    startup.o(i.main) refers to idle.o(i.rt_thread_idle_init) for rt_thread_idle_init
    startup.o(i.main) refers to scheduler.o(i.rt_system_scheduler_start) for rt_system_scheduler_start
    startup.o(i.main) refers to system_m051series.o(.data) for SystemCoreClock
    startup.o(i.rt_application_init) refers to thread.o(i.rt_thread_create) for rt_thread_create
    startup.o(i.rt_application_init) refers to thread.o(i.rt_thread_startup) for rt_thread_startup
    startup.o(i.rt_application_init) refers to startup.o(i.thread_entry) for thread_entry
    startup.o(i.rt_application_init) refers to startup.o(.data) for tid1
    startup.o(i.thread_entry) refers to kservice.o(i.rt_kprintf) for rt_kprintf
    startup.o(i.thread_entry) refers to thread.o(i.rt_thread_delay) for rt_thread_delay
    board.o(i.SysTick_Handler) refers to irq.o(i.rt_interrupt_enter) for rt_interrupt_enter
    board.o(i.SysTick_Handler) refers to clock.o(i.rt_tick_increase) for rt_tick_increase
    board.o(i.SysTick_Handler) refers to irq.o(i.rt_interrupt_leave) for rt_interrupt_leave
    board.o(i.rt_hw_board_init) refers to uidiv.o(.text) for __aeabi_uidivmod
    board.o(i.rt_hw_board_init) refers to board.o(i.NVIC_SetPriority) for NVIC_SetPriority
    board.o(i.rt_hw_board_init) refers to kservice.o(i.rt_console_set_device) for rt_console_set_device
    board.o(i.rt_hw_board_init) refers to components.o(i.rt_components_board_init) for rt_components_board_init
    board.o(i.rt_hw_board_init) refers to system_m051series.o(.data) for SystemCoreClock
    board.o(i.rt_hw_system_init) refers to clk.o(i.CLK_EnableXtalRC) for CLK_EnableXtalRC
    board.o(i.rt_hw_system_init) refers to clk.o(i.CLK_WaitClockReady) for CLK_WaitClockReady
    board.o(i.rt_hw_system_init) refers to clk.o(i.CLK_SetHCLK) for CLK_SetHCLK
    board.o(i.rt_hw_system_init) refers to clk.o(i.CLK_SetCoreClock) for CLK_SetCoreClock
    board.o(i.rt_hw_system_init) refers to clk.o(i.CLK_SetSysTickClockSrc) for CLK_SetSysTickClockSrc
    led.o(i.rt_hw_led_init) refers to gpio.o(i.GPIO_SetMode) for GPIO_SetMode
    led.o(.rti_fn.2) refers to led.o(i.rt_hw_led_init) for rt_hw_led_init
    usart.o(i.UART0_IRQHandler) refers to irq.o(i.rt_interrupt_enter) for rt_interrupt_enter
    usart.o(i.UART0_IRQHandler) refers to serial.o(i.rt_hw_serial_isr) for rt_hw_serial_isr
    usart.o(i.UART0_IRQHandler) refers to irq.o(i.rt_interrupt_leave) for rt_interrupt_leave
    usart.o(i.UART0_IRQHandler) refers to usart.o(.bss) for serial0
    usart.o(i.m05x_configure) refers to clk.o(i.CLK_EnableModuleClock) for CLK_EnableModuleClock
    usart.o(i.m05x_configure) refers to clk.o(i.CLK_SetModuleClock) for CLK_SetModuleClock
    usart.o(i.m05x_configure) refers to sys.o(i.SYS_ResetModule) for SYS_ResetModule
    usart.o(i.m05x_configure) refers to uart.o(i.UART_Open) for UART_Open
    usart.o(i.m05x_configure) refers to uart.o(i.UART_EnableInt) for UART_EnableInt
    usart.o(i.m05x_control) refers to uart.o(i.UART_DisableInt) for UART_DisableInt
    usart.o(i.m05x_control) refers to uart.o(i.UART_EnableInt) for UART_EnableInt
    usart.o(i.rt_hw_usart_init) refers to serial.o(i.rt_hw_serial_register) for rt_hw_serial_register
    usart.o(i.rt_hw_usart_init) refers to usart.o(.constdata) for .constdata
    usart.o(i.rt_hw_usart_init) refers to usart.o(.bss) for serial0
    usart.o(.constdata) refers to usart.o(i.m05x_configure) for m05x_configure
    usart.o(.constdata) refers to usart.o(i.m05x_control) for m05x_control
    usart.o(.constdata) refers to usart.o(i.m05x_putc) for m05x_putc
    usart.o(.constdata) refers to usart.o(i.m05x_getc) for m05x_getc
    printf.o(i.SendChar) refers to printf.o(i.SendChar_ToUART) for SendChar_ToUART
    printf.o(i.fputc) refers to printf.o(i.SendChar) for SendChar
    system_m051series.o(i.CLK_GetPLLClockFreq) refers to uidiv.o(.text) for __aeabi_uidivmod
    system_m051series.o(i.SystemCoreClockUpdate) refers to system_m051series.o(i.CLK_GetPLLClockFreq) for CLK_GetPLLClockFreq
    system_m051series.o(i.SystemCoreClockUpdate) refers to uidiv.o(.text) for __aeabi_uidivmod
    system_m051series.o(i.SystemCoreClockUpdate) refers to system_m051series.o(.data) for PllClock
    system_m051series.o(i.SystemCoreClockUpdate) refers to system_m051series.o(.constdata) for gau32ClkSrcTbl
    system_m051series.o(i.SystemInit) refers to system_m051series.o(.data) for PllClock
    clk.o(i.CLK_DisableCKO) refers to clk.o(i.CLK_DisableModuleClock) for CLK_DisableModuleClock
    clk.o(i.CLK_EnableCKO) refers to clk.o(i.CLK_EnableModuleClock) for CLK_EnableModuleClock
    clk.o(i.CLK_EnableCKO) refers to clk.o(i.CLK_SetModuleClock) for CLK_SetModuleClock
    clk.o(i.CLK_EnablePLL) refers to clk.o(i.CLK_WaitClockReady) for CLK_WaitClockReady
    clk.o(i.CLK_EnablePLL) refers to clk.o(i.CLK_GetPLLClockFreq) for CLK_GetPLLClockFreq
    clk.o(i.CLK_EnablePLL) refers to uidiv.o(.text) for __aeabi_uidivmod
    clk.o(i.CLK_GetCPUFreq) refers to system_m051series.o(i.SystemCoreClockUpdate) for SystemCoreClockUpdate
    clk.o(i.CLK_GetCPUFreq) refers to system_m051series.o(.data) for SystemCoreClock
    clk.o(i.CLK_GetHCLKFreq) refers to system_m051series.o(i.SystemCoreClockUpdate) for SystemCoreClockUpdate
    clk.o(i.CLK_GetHCLKFreq) refers to system_m051series.o(.data) for SystemCoreClock
    clk.o(i.CLK_GetPLLClockFreq) refers to uidiv.o(.text) for __aeabi_uidivmod
    clk.o(i.CLK_SetCoreClock) refers to clk.o(i.CLK_EnablePLL) for CLK_EnablePLL
    clk.o(i.CLK_SetCoreClock) refers to clk.o(i.CLK_SetHCLK) for CLK_SetHCLK
    clk.o(i.CLK_SetHCLK) refers to system_m051series.o(i.SystemCoreClockUpdate) for SystemCoreClockUpdate
    ebi.o(i.EBI_Open) refers to ebi.o(i.__ARM_common_switch8) for __ARM_common_switch8
    fmc.o(i.FMC_ReadConfig) refers to fmc.o(i.FMC_Read) for FMC_Read
    fmc.o(i.FMC_WriteConfig) refers to fmc.o(i.FMC_Read) for FMC_Read
    i2c.o(i.I2C_GetBusClockFreq) refers to uidiv.o(.text) for __aeabi_uidivmod
    i2c.o(i.I2C_GetBusClockFreq) refers to system_m051series.o(.data) for SystemCoreClock
    i2c.o(i.I2C_Open) refers to uidiv.o(.text) for __aeabi_uidivmod
    i2c.o(i.I2C_Open) refers to system_m051series.o(.data) for SystemCoreClock
    i2c.o(i.I2C_SetBusClockFreq) refers to uidiv.o(.text) for __aeabi_uidivmod
    i2c.o(i.I2C_SetBusClockFreq) refers to system_m051series.o(.data) for SystemCoreClock
    pwm.o(i.PWM_ConfigCaptureChannel) refers to memcpya.o(.text) for __aeabi_memcpy4
    pwm.o(i.PWM_ConfigCaptureChannel) refers to system_m051series.o(i.SystemCoreClockUpdate) for SystemCoreClockUpdate
    pwm.o(i.PWM_ConfigCaptureChannel) refers to uidiv.o(.text) for __aeabi_uidivmod
    pwm.o(i.PWM_ConfigCaptureChannel) refers to pwm.o(.constdata) for .constdata
    pwm.o(i.PWM_ConfigCaptureChannel) refers to system_m051series.o(.data) for SystemCoreClock
    pwm.o(i.PWM_ConfigOutputChannel) refers to memcpya.o(.text) for __aeabi_memcpy4
    pwm.o(i.PWM_ConfigOutputChannel) refers to system_m051series.o(i.SystemCoreClockUpdate) for SystemCoreClockUpdate
    pwm.o(i.PWM_ConfigOutputChannel) refers to uidiv.o(.text) for __aeabi_uidivmod
    pwm.o(i.PWM_ConfigOutputChannel) refers to pwm.o(.constdata) for .constdata
    pwm.o(i.PWM_ConfigOutputChannel) refers to system_m051series.o(.data) for SystemCoreClock
    spi.o(i.CLK_GetPLLClockFreq) refers to uidiv.o(.text) for __aeabi_uidivmod
    spi.o(i.SPI_GetBusClock) refers to clk.o(i.CLK_GetHCLKFreq) for CLK_GetHCLKFreq
    spi.o(i.SPI_GetBusClock) refers to uidiv.o(.text) for __aeabi_uidivmod
    spi.o(i.SPI_GetBusClock) refers to spi.o(i.CLK_GetPLLClockFreq) for CLK_GetPLLClockFreq
    spi.o(i.SPI_Open) refers to clk.o(i.CLK_GetHCLKFreq) for CLK_GetHCLKFreq
    spi.o(i.SPI_Open) refers to uidiv.o(.text) for __aeabi_uidivmod
    spi.o(i.SPI_Open) refers to spi.o(i.CLK_GetPLLClockFreq) for CLK_GetPLLClockFreq
    spi.o(i.SPI_SetBusClock) refers to clk.o(i.CLK_GetHCLKFreq) for CLK_GetHCLKFreq
    spi.o(i.SPI_SetBusClock) refers to uidiv.o(.text) for __aeabi_uidivmod
    spi.o(i.SPI_SetBusClock) refers to spi.o(i.CLK_GetPLLClockFreq) for CLK_GetPLLClockFreq
    timer.o(i.TIMER_Delay) refers to timer.o(i.TIMER_GetModuleClock) for TIMER_GetModuleClock
    timer.o(i.TIMER_Delay) refers to uidiv.o(.text) for __aeabi_uidivmod
    timer.o(i.TIMER_Delay) refers to system_m051series.o(.data) for SystemCoreClock
    timer.o(i.TIMER_GetModuleClock) refers to memcpya.o(.text) for __aeabi_memcpy4
    timer.o(i.TIMER_GetModuleClock) refers to timer.o(.constdata) for .constdata
    timer.o(i.TIMER_GetModuleClock) refers to system_m051series.o(.data) for SystemCoreClock
    timer.o(i.TIMER_Open) refers to timer.o(i.TIMER_GetModuleClock) for TIMER_GetModuleClock
    timer.o(i.TIMER_Open) refers to uidiv.o(.text) for __aeabi_uidivmod
    uart.o(i.CLK_GetPLLClockFreq) refers to uidiv.o(.text) for __aeabi_uidivmod
    uart.o(i.UART_DisableInt) refers to uart.o(i.NVIC_DisableIRQ) for NVIC_DisableIRQ
    uart.o(i.UART_EnableInt) refers to uart.o(i.NVIC_EnableIRQ) for NVIC_EnableIRQ
    uart.o(i.UART_Open) refers to uart.o(i.CLK_GetPLLClockFreq) for CLK_GetPLLClockFreq
    uart.o(i.UART_Open) refers to uidiv.o(.text) for __aeabi_uidivmod
    uart.o(i.UART_Open) refers to uart.o(.constdata) for .constdata
    uart.o(i.UART_SelectIrDAMode) refers to uart.o(i.CLK_GetPLLClockFreq) for CLK_GetPLLClockFreq
    uart.o(i.UART_SelectIrDAMode) refers to uidiv.o(.text) for __aeabi_uidivmod
    uart.o(i.UART_SelectIrDAMode) refers to uart.o(.constdata) for .constdata
    uart.o(i.UART_SetLine_Config) refers to uart.o(i.CLK_GetPLLClockFreq) for CLK_GetPLLClockFreq
    uart.o(i.UART_SetLine_Config) refers to uidiv.o(.text) for __aeabi_uidivmod
    uart.o(i.UART_SetLine_Config) refers to uart.o(.constdata) for .constdata
    startup_m051series.o(RESET) refers to startup_m051series.o(STACK) for __initial_sp
    startup_m051series.o(RESET) refers to startup_m051series.o(.text) for Reset_Handler
    startup_m051series.o(RESET) refers to context_rvds.o(.text) for HardFault_Handler
    startup_m051series.o(RESET) refers to board.o(i.SysTick_Handler) for SysTick_Handler
    startup_m051series.o(RESET) refers to usart.o(i.UART0_IRQHandler) for UART0_IRQHandler
    startup_m051series.o(.text) refers to system_m051series.o(i.SystemInit) for SystemInit
    startup_m051series.o(.text) refers to entry.o(.ARM.Collect$$$$00000000) for __main
    clock.o(i.rt_tick_from_millisecond) refers to uidiv.o(.text) for __aeabi_uidivmod
    clock.o(i.rt_tick_get) refers to clock.o(.data) for rt_tick
    clock.o(i.rt_tick_increase) refers to thread.o(i.rt_thread_self) for rt_thread_self
    clock.o(i.rt_tick_increase) refers to thread.o(i.rt_thread_yield) for rt_thread_yield
    clock.o(i.rt_tick_increase) refers to src_timer.o(i.rt_timer_check) for rt_timer_check
    clock.o(i.rt_tick_increase) refers to clock.o(.data) for rt_tick
    clock.o(i.rt_tick_set) refers to context_rvds.o(.text) for rt_hw_interrupt_disable
    clock.o(i.rt_tick_set) refers to clock.o(.data) for rt_tick
    device.o(i.rt_device_find) refers to thread.o(i.rt_thread_self) for rt_thread_self
    device.o(i.rt_device_find) refers to scheduler.o(i.rt_enter_critical) for rt_enter_critical
    device.o(i.rt_device_find) refers to kservice.o(i.rt_strncmp) for rt_strncmp
    device.o(i.rt_device_find) refers to scheduler.o(i.rt_exit_critical) for rt_exit_critical
    device.o(i.rt_device_find) refers to object.o(.data) for rt_object_container
    device.o(i.rt_device_init) refers to kservice.o(i.rt_kprintf) for rt_kprintf
    device.o(i.rt_device_open) refers to kservice.o(i.rt_kprintf) for rt_kprintf
    device.o(i.rt_device_read) refers to kservice.o(i.rt_set_errno) for rt_set_errno
    device.o(i.rt_device_register) refers to device.o(i.rt_device_find) for rt_device_find
    device.o(i.rt_device_register) refers to object.o(i.rt_object_init) for rt_object_init
    device.o(i.rt_device_unregister) refers to object.o(i.rt_object_detach) for rt_object_detach
    device.o(i.rt_device_write) refers to kservice.o(i.rt_set_errno) for rt_set_errno
    idle.o(i._has_defunct_thread) refers to scheduler.o(.data) for rt_thread_defunct
    idle.o(i.rt_thread_idle_entry) refers to idle.o(i.rt_thread_idle_excute) for rt_thread_idle_excute
    idle.o(i.rt_thread_idle_excute) refers to context_rvds.o(.text) for rt_hw_interrupt_disable
    idle.o(i.rt_thread_idle_excute) refers to idle.o(i._has_defunct_thread) for _has_defunct_thread
    idle.o(i.rt_thread_idle_excute) refers to object.o(i.rt_object_is_systemobject) for rt_object_is_systemobject
    idle.o(i.rt_thread_idle_excute) refers to mem.o(i.rt_free) for rt_free
    idle.o(i.rt_thread_idle_excute) refers to object.o(i.rt_object_delete) for rt_object_delete
    idle.o(i.rt_thread_idle_excute) refers to scheduler.o(.data) for rt_thread_defunct
    idle.o(i.rt_thread_idle_gethandler) refers to idle.o(.bss) for idle
    idle.o(i.rt_thread_idle_init) refers to thread.o(i.rt_thread_init) for rt_thread_init
    idle.o(i.rt_thread_idle_init) refers to thread.o(i.rt_thread_startup) for rt_thread_startup
    idle.o(i.rt_thread_idle_init) refers to idle.o(.bss) for rt_thread_stack
    idle.o(i.rt_thread_idle_init) refers to idle.o(i.rt_thread_idle_entry) for rt_thread_idle_entry
    ipc.o(i.rt_ipc_list_resume_all) refers to context_rvds.o(.text) for rt_hw_interrupt_disable
    ipc.o(i.rt_ipc_list_resume_all) refers to thread.o(i.rt_thread_resume) for rt_thread_resume
    ipc.o(i.rt_ipc_list_resume_all) refers to ipc.o(i.rt_list_isempty) for rt_list_isempty
    ipc.o(i.rt_ipc_list_suspend) refers to thread.o(i.rt_thread_suspend) for rt_thread_suspend
    ipc.o(i.rt_ipc_list_suspend) refers to ipc.o(i.rt_list_insert_before) for rt_list_insert_before
    ipc.o(i.rt_sem_control) refers to context_rvds.o(.text) for rt_hw_interrupt_disable
    ipc.o(i.rt_sem_control) refers to ipc.o(i.rt_ipc_list_resume_all) for rt_ipc_list_resume_all
    ipc.o(i.rt_sem_control) refers to scheduler.o(i.rt_schedule) for rt_schedule
    ipc.o(i.rt_sem_create) refers to object.o(i.rt_object_allocate) for rt_object_allocate
    ipc.o(i.rt_sem_create) refers to ipc.o(i.rt_ipc_object_init) for rt_ipc_object_init
    ipc.o(i.rt_sem_delete) refers to ipc.o(i.rt_ipc_list_resume_all) for rt_ipc_list_resume_all
    ipc.o(i.rt_sem_delete) refers to object.o(i.rt_object_delete) for rt_object_delete
    ipc.o(i.rt_sem_detach) refers to ipc.o(i.rt_ipc_list_resume_all) for rt_ipc_list_resume_all
    ipc.o(i.rt_sem_detach) refers to object.o(i.rt_object_detach) for rt_object_detach
    ipc.o(i.rt_sem_init) refers to object.o(i.rt_object_init) for rt_object_init
    ipc.o(i.rt_sem_init) refers to ipc.o(i.rt_ipc_object_init) for rt_ipc_object_init
    ipc.o(i.rt_sem_release) refers to context_rvds.o(.text) for rt_hw_interrupt_disable
    ipc.o(i.rt_sem_release) refers to ipc.o(i.rt_list_isempty) for rt_list_isempty
    ipc.o(i.rt_sem_release) refers to thread.o(i.rt_thread_resume) for rt_thread_resume
    ipc.o(i.rt_sem_release) refers to scheduler.o(i.rt_schedule) for rt_schedule
    ipc.o(i.rt_sem_take) refers to context_rvds.o(.text) for rt_hw_interrupt_disable
    ipc.o(i.rt_sem_take) refers to thread.o(i.rt_thread_self) for rt_thread_self
    ipc.o(i.rt_sem_take) refers to ipc.o(i.rt_ipc_list_suspend) for rt_ipc_list_suspend
    ipc.o(i.rt_sem_take) refers to src_timer.o(i.rt_timer_control) for rt_timer_control
    ipc.o(i.rt_sem_take) refers to src_timer.o(i.rt_timer_start) for rt_timer_start
    ipc.o(i.rt_sem_take) refers to scheduler.o(i.rt_schedule) for rt_schedule
    ipc.o(i.rt_sem_trytake) refers to ipc.o(i.rt_sem_take) for rt_sem_take
    irq.o(i.rt_interrupt_enter) refers to context_rvds.o(.text) for rt_hw_interrupt_disable
    irq.o(i.rt_interrupt_enter) refers to irq.o(.data) for rt_interrupt_nest
    irq.o(i.rt_interrupt_get_nest) refers to irq.o(.data) for rt_interrupt_nest
    irq.o(i.rt_interrupt_leave) refers to context_rvds.o(.text) for rt_hw_interrupt_disable
    irq.o(i.rt_interrupt_leave) refers to irq.o(.data) for rt_interrupt_nest
    kservice.o(i.__rt_ffs) refers to kservice.o(.constdata) for __lowest_bit_bitmap
    kservice.o(i._rt_errno) refers to irq.o(i.rt_interrupt_get_nest) for rt_interrupt_get_nest
    kservice.o(i._rt_errno) refers to thread.o(i.rt_thread_self) for rt_thread_self
    kservice.o(i._rt_errno) refers to kservice.o(.data) for _errno
    kservice.o(i.print_number) refers to uidiv.o(.text) for __aeabi_uidivmod
    kservice.o(i.print_number) refers to kservice.o(.constdata) for large_digits
    kservice.o(i.rt_console_get_device) refers to kservice.o(.data) for _console_device
    kservice.o(i.rt_console_set_device) refers to device.o(i.rt_device_find) for rt_device_find
    kservice.o(i.rt_console_set_device) refers to device.o(i.rt_device_close) for rt_device_close
    kservice.o(i.rt_console_set_device) refers to device.o(i.rt_device_open) for rt_device_open
    kservice.o(i.rt_console_set_device) refers to kservice.o(.data) for _console_device
    kservice.o(i.rt_free_align) refers to mem.o(i.rt_free) for rt_free
    kservice.o(i.rt_get_errno) refers to irq.o(i.rt_interrupt_get_nest) for rt_interrupt_get_nest
    kservice.o(i.rt_get_errno) refers to thread.o(i.rt_thread_self) for rt_thread_self
    kservice.o(i.rt_get_errno) refers to kservice.o(.data) for _errno
    kservice.o(i.rt_kprintf) refers to kservice.o(i.rt_vsnprintf) for rt_vsnprintf
    kservice.o(i.rt_kprintf) refers to kservice.o(i.rt_hw_console_output) for rt_hw_console_output
    kservice.o(i.rt_kprintf) refers to device.o(i.rt_device_write) for rt_device_write
    kservice.o(i.rt_kprintf) refers to kservice.o(.bss) for rt_log_buf
    kservice.o(i.rt_kprintf) refers to kservice.o(.data) for _console_device
    kservice.o(i.rt_kputs) refers to kservice.o(i.rt_hw_console_output) for rt_hw_console_output
    kservice.o(i.rt_kputs) refers to kservice.o(i.rt_strlen) for rt_strlen
    kservice.o(i.rt_kputs) refers to device.o(i.rt_device_write) for rt_device_write
    kservice.o(i.rt_kputs) refers to kservice.o(.data) for _console_device
    kservice.o(i.rt_malloc_align) refers to mem.o(i.rt_malloc) for rt_malloc
    kservice.o(i.rt_set_errno) refers to irq.o(i.rt_interrupt_get_nest) for rt_interrupt_get_nest
    kservice.o(i.rt_set_errno) refers to thread.o(i.rt_thread_self) for rt_thread_self
    kservice.o(i.rt_set_errno) refers to kservice.o(.data) for _errno
    kservice.o(i.rt_show_version) refers to kservice.o(i.rt_kprintf) for rt_kprintf
    kservice.o(i.rt_snprintf) refers to kservice.o(i.rt_vsnprintf) for rt_vsnprintf
    kservice.o(i.rt_sprintf) refers to kservice.o(i.rt_vsprintf) for rt_vsprintf
    kservice.o(i.rt_strdup) refers to kservice.o(i.rt_strlen) for rt_strlen
    kservice.o(i.rt_strdup) refers to mem.o(i.rt_malloc) for rt_malloc
    kservice.o(i.rt_strdup) refers to kservice.o(i.rt_memcpy) for rt_memcpy
    kservice.o(i.rt_strstr) refers to kservice.o(i.rt_strlen) for rt_strlen
    kservice.o(i.rt_strstr) refers to kservice.o(i.rt_memcmp) for rt_memcmp
    kservice.o(i.rt_vsnprintf) refers to kservice.o(i.skip_atoi) for skip_atoi
    kservice.o(i.rt_vsnprintf) refers to kservice.o(i.rt_strlen) for rt_strlen
    kservice.o(i.rt_vsnprintf) refers to kservice.o(i.print_number) for print_number
    kservice.o(i.rt_vsprintf) refers to kservice.o(i.rt_vsnprintf) for rt_vsnprintf
    mem.o(i.list_mem) refers to kservice.o(i.rt_kprintf) for rt_kprintf
    mem.o(i.list_mem) refers to mem.o(.data) for mem_size_aligned
    mem.o(i.plug_holes) refers to mem.o(.data) for heap_ptr
    mem.o(i.rt_calloc) refers to mem.o(i.rt_malloc) for rt_malloc
    mem.o(i.rt_calloc) refers to kservice.o(i.rt_memset) for rt_memset
    mem.o(i.rt_free) refers to ipc.o(i.rt_sem_take) for rt_sem_take
    mem.o(i.rt_free) refers to mem.o(i.plug_holes) for plug_holes
    mem.o(i.rt_free) refers to ipc.o(i.rt_sem_release) for rt_sem_release
    mem.o(i.rt_free) refers to mem.o(.data) for heap_ptr
    mem.o(i.rt_free) refers to mem.o(.bss) for heap_sem
    mem.o(i.rt_malloc) refers to ipc.o(i.rt_sem_take) for rt_sem_take
    mem.o(i.rt_malloc) refers to ipc.o(i.rt_sem_release) for rt_sem_release
    mem.o(i.rt_malloc) refers to mem.o(.data) for mem_size_aligned
    mem.o(i.rt_malloc) refers to mem.o(.bss) for heap_sem
    mem.o(i.rt_memory_info) refers to mem.o(.data) for mem_size_aligned
    mem.o(i.rt_realloc) refers to mem.o(i.rt_malloc) for rt_malloc
    mem.o(i.rt_realloc) refers to ipc.o(i.rt_sem_take) for rt_sem_take
    mem.o(i.rt_realloc) refers to ipc.o(i.rt_sem_release) for rt_sem_release
    mem.o(i.rt_realloc) refers to mem.o(i.plug_holes) for plug_holes
    mem.o(i.rt_realloc) refers to kservice.o(i.rt_memcpy) for rt_memcpy
    mem.o(i.rt_realloc) refers to mem.o(i.rt_free) for rt_free
    mem.o(i.rt_realloc) refers to mem.o(.data) for mem_size_aligned
    mem.o(i.rt_realloc) refers to mem.o(.bss) for heap_sem
    mem.o(i.rt_system_heap_init) refers to kservice.o(i.rt_kprintf) for rt_kprintf
    mem.o(i.rt_system_heap_init) refers to ipc.o(i.rt_sem_init) for rt_sem_init
    mem.o(i.rt_system_heap_init) refers to mem.o(.data) for mem_size_aligned
    mem.o(i.rt_system_heap_init) refers to mem.o(.bss) for heap_sem
    mem.o(FSymTab) refers to mem.o(.rodata.name) for __fsym_list_mem_name
    mem.o(FSymTab) refers to mem.o(i.list_mem) for list_mem
    object.o(i.rt_object_allocate) refers to mem.o(i.rt_malloc) for rt_malloc
    object.o(i.rt_object_allocate) refers to kservice.o(i.rt_strncpy) for rt_strncpy
    object.o(i.rt_object_allocate) refers to context_rvds.o(.text) for rt_hw_interrupt_disable
    object.o(i.rt_object_allocate) refers to object.o(i.rt_list_insert_after) for rt_list_insert_after
    object.o(i.rt_object_allocate) refers to object.o(.data) for rt_object_container
    object.o(i.rt_object_delete) refers to context_rvds.o(.text) for rt_hw_interrupt_disable
    object.o(i.rt_object_delete) refers to object.o(i.rt_list_remove) for rt_list_remove
    object.o(i.rt_object_delete) refers to mem.o(i.rt_free) for rt_free
    object.o(i.rt_object_detach) refers to context_rvds.o(.text) for rt_hw_interrupt_disable
    object.o(i.rt_object_detach) refers to object.o(i.rt_list_remove) for rt_list_remove
    object.o(i.rt_object_find) refers to scheduler.o(i.rt_enter_critical) for rt_enter_critical
    object.o(i.rt_object_find) refers to kservice.o(i.rt_strncmp) for rt_strncmp
    object.o(i.rt_object_find) refers to scheduler.o(i.rt_exit_critical) for rt_exit_critical
    object.o(i.rt_object_find) refers to object.o(.data) for rt_object_container
    object.o(i.rt_object_get_information) refers to object.o(.data) for rt_object_container
    object.o(i.rt_object_init) refers to kservice.o(i.rt_strncpy) for rt_strncpy
    object.o(i.rt_object_init) refers to context_rvds.o(.text) for rt_hw_interrupt_disable
    object.o(i.rt_object_init) refers to object.o(i.rt_list_insert_after) for rt_list_insert_after
    object.o(i.rt_object_init) refers to object.o(.data) for rt_object_container
    scheduler.o(i.rt_critical_level) refers to scheduler.o(.data) for rt_scheduler_lock_nest
    scheduler.o(i.rt_enter_critical) refers to context_rvds.o(.text) for rt_hw_interrupt_disable
    scheduler.o(i.rt_enter_critical) refers to scheduler.o(.data) for rt_scheduler_lock_nest
    scheduler.o(i.rt_exit_critical) refers to context_rvds.o(.text) for rt_hw_interrupt_disable
    scheduler.o(i.rt_exit_critical) refers to scheduler.o(i.rt_schedule) for rt_schedule
    scheduler.o(i.rt_exit_critical) refers to scheduler.o(.data) for rt_scheduler_lock_nest
    scheduler.o(i.rt_schedule) refers to context_rvds.o(.text) for rt_hw_interrupt_disable
    scheduler.o(i.rt_schedule) refers to kservice.o(i.__rt_ffs) for __rt_ffs
    scheduler.o(i.rt_schedule) refers to scheduler.o(.data) for rt_scheduler_lock_nest
    scheduler.o(i.rt_schedule) refers to scheduler.o(.bss) for rt_thread_priority_table
    scheduler.o(i.rt_schedule) refers to irq.o(.data) for rt_interrupt_nest
    scheduler.o(i.rt_schedule_insert_thread) refers to context_rvds.o(.text) for rt_hw_interrupt_disable
    scheduler.o(i.rt_schedule_insert_thread) refers to scheduler.o(.bss) for rt_thread_priority_table
    scheduler.o(i.rt_schedule_insert_thread) refers to scheduler.o(.data) for rt_thread_ready_priority_group
    scheduler.o(i.rt_schedule_remove_thread) refers to context_rvds.o(.text) for rt_hw_interrupt_disable
    scheduler.o(i.rt_schedule_remove_thread) refers to scheduler.o(.bss) for rt_thread_priority_table
    scheduler.o(i.rt_schedule_remove_thread) refers to scheduler.o(.data) for rt_thread_ready_priority_group
    scheduler.o(i.rt_system_scheduler_init) refers to scheduler.o(i.rt_list_init) for rt_list_init
    scheduler.o(i.rt_system_scheduler_init) refers to scheduler.o(.data) for rt_scheduler_lock_nest
    scheduler.o(i.rt_system_scheduler_init) refers to scheduler.o(.bss) for rt_thread_priority_table
    scheduler.o(i.rt_system_scheduler_start) refers to kservice.o(i.__rt_ffs) for __rt_ffs
    scheduler.o(i.rt_system_scheduler_start) refers to context_rvds.o(.text) for rt_hw_context_switch_to
    scheduler.o(i.rt_system_scheduler_start) refers to scheduler.o(.data) for rt_thread_ready_priority_group
    scheduler.o(i.rt_system_scheduler_start) refers to scheduler.o(.bss) for rt_thread_priority_table
    thread.o(i._rt_thread_init) refers to kservice.o(i.rt_memset) for rt_memset
    thread.o(i._rt_thread_init) refers to cpuport.o(i.rt_hw_stack_init) for rt_hw_stack_init
    thread.o(i._rt_thread_init) refers to src_timer.o(i.rt_timer_init) for rt_timer_init
    thread.o(i._rt_thread_init) refers to thread.o(i.rt_thread_exit) for rt_thread_exit
    thread.o(i._rt_thread_init) refers to thread.o(i.rt_thread_timeout) for rt_thread_timeout
    thread.o(i.rt_thread_control) refers to context_rvds.o(.text) for rt_hw_interrupt_disable
    thread.o(i.rt_thread_control) refers to scheduler.o(i.rt_schedule_remove_thread) for rt_schedule_remove_thread
    thread.o(i.rt_thread_control) refers to scheduler.o(i.rt_schedule_insert_thread) for rt_schedule_insert_thread
    thread.o(i.rt_thread_control) refers to thread.o(i.rt_thread_startup) for rt_thread_startup
    thread.o(i.rt_thread_control) refers to thread.o(i.rt_thread_delete) for rt_thread_delete
    thread.o(i.rt_thread_create) refers to object.o(i.rt_object_allocate) for rt_object_allocate
    thread.o(i.rt_thread_create) refers to mem.o(i.rt_malloc) for rt_malloc
    thread.o(i.rt_thread_create) refers to object.o(i.rt_object_delete) for rt_object_delete
    thread.o(i.rt_thread_create) refers to thread.o(i._rt_thread_init) for _rt_thread_init
    thread.o(i.rt_thread_delay) refers to thread.o(i.rt_thread_sleep) for rt_thread_sleep
    thread.o(i.rt_thread_delete) refers to scheduler.o(i.rt_schedule_remove_thread) for rt_schedule_remove_thread
    thread.o(i.rt_thread_delete) refers to src_timer.o(i.rt_timer_detach) for rt_timer_detach
    thread.o(i.rt_thread_delete) refers to context_rvds.o(.text) for rt_hw_interrupt_disable
    thread.o(i.rt_thread_delete) refers to thread.o(i.rt_list_insert_after) for rt_list_insert_after
    thread.o(i.rt_thread_delete) refers to scheduler.o(.data) for rt_thread_defunct
    thread.o(i.rt_thread_detach) refers to scheduler.o(i.rt_schedule_remove_thread) for rt_schedule_remove_thread
    thread.o(i.rt_thread_detach) refers to src_timer.o(i.rt_timer_detach) for rt_timer_detach
    thread.o(i.rt_thread_detach) refers to object.o(i.rt_object_detach) for rt_object_detach
    thread.o(i.rt_thread_detach) refers to context_rvds.o(.text) for rt_hw_interrupt_disable
    thread.o(i.rt_thread_detach) refers to thread.o(i.rt_list_insert_after) for rt_list_insert_after
    thread.o(i.rt_thread_detach) refers to scheduler.o(.data) for rt_thread_defunct
    thread.o(i.rt_thread_exit) refers to context_rvds.o(.text) for rt_hw_interrupt_disable
    thread.o(i.rt_thread_exit) refers to scheduler.o(i.rt_schedule_remove_thread) for rt_schedule_remove_thread
    thread.o(i.rt_thread_exit) refers to src_timer.o(i.rt_timer_detach) for rt_timer_detach
    thread.o(i.rt_thread_exit) refers to object.o(i.rt_object_is_systemobject) for rt_object_is_systemobject
    thread.o(i.rt_thread_exit) refers to object.o(i.rt_object_detach) for rt_object_detach
    thread.o(i.rt_thread_exit) refers to thread.o(i.rt_list_insert_after) for rt_list_insert_after
    thread.o(i.rt_thread_exit) refers to scheduler.o(i.rt_schedule) for rt_schedule
    thread.o(i.rt_thread_exit) refers to scheduler.o(.data) for rt_current_thread
    thread.o(i.rt_thread_find) refers to thread.o(i.rt_thread_self) for rt_thread_self
    thread.o(i.rt_thread_find) refers to scheduler.o(i.rt_enter_critical) for rt_enter_critical
    thread.o(i.rt_thread_find) refers to kservice.o(i.rt_strncmp) for rt_strncmp
    thread.o(i.rt_thread_find) refers to scheduler.o(i.rt_exit_critical) for rt_exit_critical
    thread.o(i.rt_thread_find) refers to object.o(.data) for rt_object_container
    thread.o(i.rt_thread_init) refers to object.o(i.rt_object_init) for rt_object_init
    thread.o(i.rt_thread_init) refers to thread.o(i._rt_thread_init) for _rt_thread_init
    thread.o(i.rt_thread_resume) refers to context_rvds.o(.text) for rt_hw_interrupt_disable
    thread.o(i.rt_thread_resume) refers to thread.o(i.rt_list_remove) for rt_list_remove
    thread.o(i.rt_thread_resume) refers to src_timer.o(i.rt_timer_stop) for rt_timer_stop
    thread.o(i.rt_thread_resume) refers to scheduler.o(i.rt_schedule_insert_thread) for rt_schedule_insert_thread
    thread.o(i.rt_thread_self) refers to scheduler.o(.data) for rt_current_thread
    thread.o(i.rt_thread_sleep) refers to context_rvds.o(.text) for rt_hw_interrupt_disable
    thread.o(i.rt_thread_sleep) refers to thread.o(i.rt_thread_suspend) for rt_thread_suspend
    thread.o(i.rt_thread_sleep) refers to src_timer.o(i.rt_timer_control) for rt_timer_control
    thread.o(i.rt_thread_sleep) refers to src_timer.o(i.rt_timer_start) for rt_timer_start
    thread.o(i.rt_thread_sleep) refers to scheduler.o(i.rt_schedule) for rt_schedule
    thread.o(i.rt_thread_sleep) refers to scheduler.o(.data) for rt_current_thread
    thread.o(i.rt_thread_startup) refers to thread.o(i.rt_thread_resume) for rt_thread_resume
    thread.o(i.rt_thread_startup) refers to thread.o(i.rt_thread_self) for rt_thread_self
    thread.o(i.rt_thread_startup) refers to scheduler.o(i.rt_schedule) for rt_schedule
    thread.o(i.rt_thread_suspend) refers to context_rvds.o(.text) for rt_hw_interrupt_disable
    thread.o(i.rt_thread_suspend) refers to scheduler.o(i.rt_schedule_remove_thread) for rt_schedule_remove_thread
    thread.o(i.rt_thread_suspend) refers to src_timer.o(i.rt_timer_stop) for rt_timer_stop
    thread.o(i.rt_thread_timeout) refers to thread.o(i.rt_list_remove) for rt_list_remove
    thread.o(i.rt_thread_timeout) refers to scheduler.o(i.rt_schedule_insert_thread) for rt_schedule_insert_thread
    thread.o(i.rt_thread_timeout) refers to scheduler.o(i.rt_schedule) for rt_schedule
    thread.o(i.rt_thread_yield) refers to context_rvds.o(.text) for rt_hw_interrupt_disable
    thread.o(i.rt_thread_yield) refers to thread.o(i.rt_list_remove) for rt_list_remove
    thread.o(i.rt_thread_yield) refers to scheduler.o(i.rt_schedule) for rt_schedule
    thread.o(i.rt_thread_yield) refers to scheduler.o(.data) for rt_current_thread
    thread.o(i.rt_thread_yield) refers to scheduler.o(.bss) for rt_thread_priority_table
    src_timer.o(i._rt_timer_init) refers to src_timer.o(i.rt_list_init) for rt_list_init
    src_timer.o(i.rt_soft_timer_check) refers to clock.o(i.rt_tick_get) for rt_tick_get
    src_timer.o(i.rt_soft_timer_check) refers to scheduler.o(i.rt_enter_critical) for rt_enter_critical
    src_timer.o(i.rt_soft_timer_check) refers to src_timer.o(i._rt_timer_remove) for _rt_timer_remove
    src_timer.o(i.rt_soft_timer_check) refers to scheduler.o(i.rt_exit_critical) for rt_exit_critical
    src_timer.o(i.rt_soft_timer_check) refers to src_timer.o(i.rt_timer_start) for rt_timer_start
    src_timer.o(i.rt_soft_timer_check) refers to src_timer.o(.data) for rt_soft_timer_list
    src_timer.o(i.rt_system_timer_init) refers to src_timer.o(i.rt_list_init) for rt_list_init
    src_timer.o(i.rt_system_timer_init) refers to src_timer.o(.data) for rt_timer_list
    src_timer.o(i.rt_system_timer_thread_init) refers to src_timer.o(i.rt_list_init) for rt_list_init
    src_timer.o(i.rt_system_timer_thread_init) refers to thread.o(i.rt_thread_init) for rt_thread_init
    src_timer.o(i.rt_system_timer_thread_init) refers to thread.o(i.rt_thread_startup) for rt_thread_startup
    src_timer.o(i.rt_system_timer_thread_init) refers to src_timer.o(.data) for rt_soft_timer_list
    src_timer.o(i.rt_system_timer_thread_init) refers to src_timer.o(.bss) for timer_thread_stack
    src_timer.o(i.rt_system_timer_thread_init) refers to src_timer.o(i.rt_thread_timer_entry) for rt_thread_timer_entry
    src_timer.o(i.rt_thread_timer_entry) refers to src_timer.o(i.rt_timer_list_next_timeout) for rt_timer_list_next_timeout
    src_timer.o(i.rt_thread_timer_entry) refers to thread.o(i.rt_thread_self) for rt_thread_self
    src_timer.o(i.rt_thread_timer_entry) refers to thread.o(i.rt_thread_suspend) for rt_thread_suspend
    src_timer.o(i.rt_thread_timer_entry) refers to scheduler.o(i.rt_schedule) for rt_schedule
    src_timer.o(i.rt_thread_timer_entry) refers to clock.o(i.rt_tick_get) for rt_tick_get
    src_timer.o(i.rt_thread_timer_entry) refers to thread.o(i.rt_thread_delay) for rt_thread_delay
    src_timer.o(i.rt_thread_timer_entry) refers to src_timer.o(i.rt_soft_timer_check) for rt_soft_timer_check
    src_timer.o(i.rt_thread_timer_entry) refers to src_timer.o(.data) for rt_soft_timer_list
    src_timer.o(i.rt_timer_check) refers to clock.o(i.rt_tick_get) for rt_tick_get
    src_timer.o(i.rt_timer_check) refers to context_rvds.o(.text) for rt_hw_interrupt_disable
    src_timer.o(i.rt_timer_check) refers to src_timer.o(i._rt_timer_remove) for _rt_timer_remove
    src_timer.o(i.rt_timer_check) refers to src_timer.o(i.rt_timer_start) for rt_timer_start
    src_timer.o(i.rt_timer_check) refers to src_timer.o(i.rt_list_isempty) for rt_list_isempty
    src_timer.o(i.rt_timer_check) refers to src_timer.o(.data) for rt_timer_list
    src_timer.o(i.rt_timer_create) refers to object.o(i.rt_object_allocate) for rt_object_allocate
    src_timer.o(i.rt_timer_create) refers to src_timer.o(i._rt_timer_init) for _rt_timer_init
    src_timer.o(i.rt_timer_delete) refers to context_rvds.o(.text) for rt_hw_interrupt_disable
    src_timer.o(i.rt_timer_delete) refers to src_timer.o(i._rt_timer_remove) for _rt_timer_remove
    src_timer.o(i.rt_timer_delete) refers to object.o(i.rt_object_delete) for rt_object_delete
    src_timer.o(i.rt_timer_detach) refers to context_rvds.o(.text) for rt_hw_interrupt_disable
    src_timer.o(i.rt_timer_detach) refers to src_timer.o(i._rt_timer_remove) for _rt_timer_remove
    src_timer.o(i.rt_timer_detach) refers to object.o(i.rt_object_detach) for rt_object_detach
    src_timer.o(i.rt_timer_init) refers to object.o(i.rt_object_init) for rt_object_init
    src_timer.o(i.rt_timer_init) refers to src_timer.o(i._rt_timer_init) for _rt_timer_init
    src_timer.o(i.rt_timer_list_next_timeout) refers to src_timer.o(i.rt_list_isempty) for rt_list_isempty
    src_timer.o(i.rt_timer_next_timeout_tick) refers to src_timer.o(i.rt_timer_list_next_timeout) for rt_timer_list_next_timeout
    src_timer.o(i.rt_timer_next_timeout_tick) refers to src_timer.o(.data) for rt_timer_list
    src_timer.o(i.rt_timer_start) refers to context_rvds.o(.text) for rt_hw_interrupt_disable
    src_timer.o(i.rt_timer_start) refers to src_timer.o(i._rt_timer_remove) for _rt_timer_remove
    src_timer.o(i.rt_timer_start) refers to clock.o(i.rt_tick_get) for rt_tick_get
    src_timer.o(i.rt_timer_start) refers to src_timer.o(i.rt_list_insert_after) for rt_list_insert_after
    src_timer.o(i.rt_timer_start) refers to thread.o(i.rt_thread_resume) for rt_thread_resume
    src_timer.o(i.rt_timer_start) refers to scheduler.o(i.rt_schedule) for rt_schedule
    src_timer.o(i.rt_timer_start) refers to src_timer.o(.data) for rt_soft_timer_list
    src_timer.o(i.rt_timer_start) refers to src_timer.o(.bss) for timer_thread
    src_timer.o(i.rt_timer_stop) refers to context_rvds.o(.text) for rt_hw_interrupt_disable
    src_timer.o(i.rt_timer_stop) refers to src_timer.o(i._rt_timer_remove) for _rt_timer_remove
    cpuport.o(i.rt_hw_hard_fault_exception) refers to kservice.o(i.rt_kprintf) for rt_kprintf
    cpuport.o(i.rt_hw_hard_fault_exception) refers to cmd.o(i.list_thread) for list_thread
    cpuport.o(i.rt_hw_hard_fault_exception) refers to scheduler.o(.data) for rt_current_thread
    context_rvds.o(.text) refers to cpuport.o(i.rt_hw_hard_fault_exception) for rt_hw_hard_fault_exception
    context_rvds.o(.text) refers to cpuport.o(.data) for rt_thread_switch_interrupt_flag
    showmem.o(i.rt_hw_show_memory) refers to kservice.o(i.rt_kprintf) for rt_kprintf
    serial.o(i._serial_dma_rx) refers to context_rvds.o(.text) for rt_hw_interrupt_disable
    serial.o(i._serial_dma_rx) refers to kservice.o(i.rt_set_errno) for rt_set_errno
    serial.o(i._serial_dma_rx) refers to serial.o(i.rt_dma_calc_recved_len) for rt_dma_calc_recved_len
    serial.o(i._serial_dma_rx) refers to kservice.o(i.rt_memcpy) for rt_memcpy
    serial.o(i._serial_dma_rx) refers to serial.o(i.rt_dma_recv_update_get_index) for rt_dma_recv_update_get_index
    serial.o(i._serial_dma_tx) refers to dataqueue.o(i.rt_data_queue_push) for rt_data_queue_push
    serial.o(i._serial_dma_tx) refers to context_rvds.o(.text) for rt_hw_interrupt_disable
    serial.o(i._serial_dma_tx) refers to kservice.o(i.rt_set_errno) for rt_set_errno
    serial.o(i._serial_int_rx) refers to context_rvds.o(.text) for rt_hw_interrupt_disable
    serial.o(i.rt_dma_recv_update_get_index) refers to idiv.o(.text) for __aeabi_idivmod
    serial.o(i.rt_dma_recv_update_put_index) refers to idiv.o(.text) for __aeabi_idivmod
    serial.o(i.rt_hw_serial_isr) refers to context_rvds.o(.text) for rt_hw_interrupt_disable
    serial.o(i.rt_hw_serial_isr) refers to completion.o(i.rt_completion_done) for rt_completion_done
    serial.o(i.rt_hw_serial_isr) refers to dataqueue.o(i.rt_data_queue_pop) for rt_data_queue_pop
    serial.o(i.rt_hw_serial_isr) refers to dataqueue.o(i.rt_data_queue_peak) for rt_data_queue_peak
    serial.o(i.rt_hw_serial_isr) refers to serial.o(i.rt_dma_recv_update_put_index) for rt_dma_recv_update_put_index
    serial.o(i.rt_hw_serial_isr) refers to serial.o(i.rt_dma_calc_recved_len) for rt_dma_calc_recved_len
    serial.o(i.rt_hw_serial_register) refers to device.o(i.rt_device_register) for rt_device_register
    serial.o(i.rt_hw_serial_register) refers to serial.o(i.rt_serial_init) for rt_serial_init
    serial.o(i.rt_hw_serial_register) refers to serial.o(i.rt_serial_open) for rt_serial_open
    serial.o(i.rt_hw_serial_register) refers to serial.o(i.rt_serial_close) for rt_serial_close
    serial.o(i.rt_hw_serial_register) refers to serial.o(i.rt_serial_read) for rt_serial_read
    serial.o(i.rt_hw_serial_register) refers to serial.o(i.rt_serial_write) for rt_serial_write
    serial.o(i.rt_hw_serial_register) refers to serial.o(i.rt_serial_control) for rt_serial_control
    serial.o(i.rt_serial_close) refers to mem.o(i.rt_free) for rt_free
    serial.o(i.rt_serial_open) refers to mem.o(i.rt_malloc) for rt_malloc
    serial.o(i.rt_serial_open) refers to kservice.o(i.rt_memset) for rt_memset
    serial.o(i.rt_serial_open) refers to dataqueue.o(i.rt_data_queue_init) for rt_data_queue_init
    serial.o(i.rt_serial_open) refers to completion.o(i.rt_completion_init) for rt_completion_init
    serial.o(i.rt_serial_read) refers to serial.o(i._serial_int_rx) for _serial_int_rx
    serial.o(i.rt_serial_read) refers to serial.o(i._serial_dma_rx) for _serial_dma_rx
    serial.o(i.rt_serial_write) refers to completion.o(i.rt_completion_wait) for rt_completion_wait
    serial.o(i.rt_serial_write) refers to serial.o(i._serial_dma_tx) for _serial_dma_tx
    completion.o(i.rt_completion_done) refers to context_rvds.o(.text) for rt_hw_interrupt_disable
    completion.o(i.rt_completion_done) refers to thread.o(i.rt_thread_resume) for rt_thread_resume
    completion.o(i.rt_completion_done) refers to scheduler.o(i.rt_schedule) for rt_schedule
    completion.o(i.rt_completion_init) refers to context_rvds.o(.text) for rt_hw_interrupt_disable
    completion.o(i.rt_completion_wait) refers to thread.o(i.rt_thread_self) for rt_thread_self
    completion.o(i.rt_completion_wait) refers to context_rvds.o(.text) for rt_hw_interrupt_disable
    completion.o(i.rt_completion_wait) refers to thread.o(i.rt_thread_suspend) for rt_thread_suspend
    completion.o(i.rt_completion_wait) refers to src_timer.o(i.rt_timer_control) for rt_timer_control
    completion.o(i.rt_completion_wait) refers to src_timer.o(i.rt_timer_start) for rt_timer_start
    completion.o(i.rt_completion_wait) refers to scheduler.o(i.rt_schedule) for rt_schedule
    dataqueue.o(i.rt_data_queue_init) refers to dataqueue.o(i.rt_list_init) for rt_list_init
    dataqueue.o(i.rt_data_queue_init) refers to mem.o(i.rt_malloc) for rt_malloc
    dataqueue.o(i.rt_data_queue_peak) refers to context_rvds.o(.text) for rt_hw_interrupt_disable
    dataqueue.o(i.rt_data_queue_peak) refers to idiv.o(.text) for __aeabi_idivmod
    dataqueue.o(i.rt_data_queue_pop) refers to thread.o(i.rt_thread_self) for rt_thread_self
    dataqueue.o(i.rt_data_queue_pop) refers to context_rvds.o(.text) for rt_hw_interrupt_disable
    dataqueue.o(i.rt_data_queue_pop) refers to thread.o(i.rt_thread_suspend) for rt_thread_suspend
    dataqueue.o(i.rt_data_queue_pop) refers to dataqueue.o(i.rt_list_insert_before) for rt_list_insert_before
    dataqueue.o(i.rt_data_queue_pop) refers to src_timer.o(i.rt_timer_control) for rt_timer_control
    dataqueue.o(i.rt_data_queue_pop) refers to src_timer.o(i.rt_timer_start) for rt_timer_start
    dataqueue.o(i.rt_data_queue_pop) refers to scheduler.o(i.rt_schedule) for rt_schedule
    dataqueue.o(i.rt_data_queue_pop) refers to idiv.o(.text) for __aeabi_idivmod
    dataqueue.o(i.rt_data_queue_pop) refers to dataqueue.o(i.rt_list_isempty) for rt_list_isempty
    dataqueue.o(i.rt_data_queue_pop) refers to thread.o(i.rt_thread_resume) for rt_thread_resume
    dataqueue.o(i.rt_data_queue_push) refers to thread.o(i.rt_thread_self) for rt_thread_self
    dataqueue.o(i.rt_data_queue_push) refers to context_rvds.o(.text) for rt_hw_interrupt_disable
    dataqueue.o(i.rt_data_queue_push) refers to thread.o(i.rt_thread_suspend) for rt_thread_suspend
    dataqueue.o(i.rt_data_queue_push) refers to dataqueue.o(i.rt_list_insert_before) for rt_list_insert_before
    dataqueue.o(i.rt_data_queue_push) refers to src_timer.o(i.rt_timer_control) for rt_timer_control
    dataqueue.o(i.rt_data_queue_push) refers to src_timer.o(i.rt_timer_start) for rt_timer_start
    dataqueue.o(i.rt_data_queue_push) refers to scheduler.o(i.rt_schedule) for rt_schedule
    dataqueue.o(i.rt_data_queue_push) refers to idiv.o(.text) for __aeabi_idivmod
    dataqueue.o(i.rt_data_queue_push) refers to dataqueue.o(i.rt_list_isempty) for rt_list_isempty
    dataqueue.o(i.rt_data_queue_push) refers to thread.o(i.rt_thread_resume) for rt_thread_resume
    dataqueue.o(i.rt_data_queue_reset) refers to scheduler.o(i.rt_enter_critical) for rt_enter_critical
    dataqueue.o(i.rt_data_queue_reset) refers to context_rvds.o(.text) for rt_hw_interrupt_disable
    dataqueue.o(i.rt_data_queue_reset) refers to thread.o(i.rt_thread_resume) for rt_thread_resume
    dataqueue.o(i.rt_data_queue_reset) refers to dataqueue.o(i.rt_list_isempty) for rt_list_isempty
    dataqueue.o(i.rt_data_queue_reset) refers to scheduler.o(i.rt_exit_critical) for rt_exit_critical
    dataqueue.o(i.rt_data_queue_reset) refers to scheduler.o(i.rt_schedule) for rt_schedule
    pipe.o(i._rt_pipe_resume_reader) refers to pipe.o(i.rt_ringbuffer_data_len) for rt_ringbuffer_data_len
    pipe.o(i._rt_pipe_resume_reader) refers to pipe.o(i.rt_list_isempty) for rt_list_isempty
    pipe.o(i._rt_pipe_resume_reader) refers to thread.o(i.rt_thread_resume) for rt_thread_resume
    pipe.o(i._rt_pipe_resume_reader) refers to scheduler.o(i.rt_schedule) for rt_schedule
    pipe.o(i._rt_pipe_resume_writer) refers to pipe.o(i.rt_list_isempty) for rt_list_isempty
    pipe.o(i._rt_pipe_resume_writer) refers to thread.o(i.rt_thread_resume) for rt_thread_resume
    pipe.o(i._rt_pipe_resume_writer) refers to scheduler.o(i.rt_schedule) for rt_schedule
    pipe.o(i.rt_pipe_control) refers to pipe.o(i.rt_ringbuffer_data_len) for rt_ringbuffer_data_len
    pipe.o(i.rt_pipe_create) refers to mem.o(i.rt_calloc) for rt_calloc
    pipe.o(i.rt_pipe_create) refers to mem.o(i.rt_malloc) for rt_malloc
    pipe.o(i.rt_pipe_create) refers to mem.o(i.rt_free) for rt_free
    pipe.o(i.rt_pipe_create) refers to pipe.o(i.rt_pipe_init) for rt_pipe_init
    pipe.o(i.rt_pipe_destroy) refers to pipe.o(i.rt_pipe_detach) for rt_pipe_detach
    pipe.o(i.rt_pipe_destroy) refers to mem.o(i.rt_free) for rt_free
    pipe.o(i.rt_pipe_detach) refers to device.o(i.rt_device_unregister) for rt_device_unregister
    pipe.o(i.rt_pipe_init) refers to pipe.o(i.rt_list_init) for rt_list_init
    pipe.o(i.rt_pipe_init) refers to ringbuffer.o(i.rt_ringbuffer_init) for rt_ringbuffer_init
    pipe.o(i.rt_pipe_init) refers to device.o(i.rt_device_register) for rt_device_register
    pipe.o(i.rt_pipe_init) refers to pipe.o(i.rt_pipe_read) for rt_pipe_read
    pipe.o(i.rt_pipe_init) refers to pipe.o(i.rt_pipe_write) for rt_pipe_write
    pipe.o(i.rt_pipe_init) refers to pipe.o(i.rt_pipe_control) for rt_pipe_control
    pipe.o(i.rt_pipe_read) refers to context_rvds.o(.text) for rt_hw_interrupt_disable
    pipe.o(i.rt_pipe_read) refers to ringbuffer.o(i.rt_ringbuffer_get) for rt_ringbuffer_get
    pipe.o(i.rt_pipe_read) refers to pipe.o(i._rt_pipe_resume_writer) for _rt_pipe_resume_writer
    pipe.o(i.rt_pipe_read) refers to thread.o(i.rt_thread_self) for rt_thread_self
    pipe.o(i.rt_pipe_read) refers to thread.o(i.rt_thread_suspend) for rt_thread_suspend
    pipe.o(i.rt_pipe_read) refers to pipe.o(i.rt_list_insert_before) for rt_list_insert_before
    pipe.o(i.rt_pipe_read) refers to scheduler.o(i.rt_schedule) for rt_schedule
    pipe.o(i.rt_pipe_write) refers to context_rvds.o(.text) for rt_hw_interrupt_disable
    pipe.o(i.rt_pipe_write) refers to ringbuffer.o(i.rt_ringbuffer_put_force) for rt_ringbuffer_put_force
    pipe.o(i.rt_pipe_write) refers to ringbuffer.o(i.rt_ringbuffer_put) for rt_ringbuffer_put
    pipe.o(i.rt_pipe_write) refers to pipe.o(i._rt_pipe_resume_reader) for _rt_pipe_resume_reader
    pipe.o(i.rt_pipe_write) refers to thread.o(i.rt_thread_self) for rt_thread_self
    pipe.o(i.rt_pipe_write) refers to thread.o(i.rt_thread_suspend) for rt_thread_suspend
    pipe.o(i.rt_pipe_write) refers to pipe.o(i.rt_list_insert_before) for rt_list_insert_before
    pipe.o(i.rt_pipe_write) refers to scheduler.o(i.rt_schedule) for rt_schedule
    portal.o(i._portal_close) refers to device.o(i.rt_device_close) for rt_device_close
    portal.o(i._portal_init) refers to device.o(i.rt_device_init) for rt_device_init
    portal.o(i._portal_open) refers to device.o(i.rt_device_open) for rt_device_open
    portal.o(i._portal_read) refers to device.o(i.rt_device_read) for rt_device_read
    portal.o(i._portal_write) refers to device.o(i.rt_device_write) for rt_device_write
    portal.o(i.rt_portal_create) refers to mem.o(i.rt_calloc) for rt_calloc
    portal.o(i.rt_portal_create) refers to portal.o(i.rt_portal_init) for rt_portal_init
    portal.o(i.rt_portal_destroy) refers to portal.o(i.rt_portal_detach) for rt_portal_detach
    portal.o(i.rt_portal_destroy) refers to mem.o(i.rt_free) for rt_free
    portal.o(i.rt_portal_detach) refers to device.o(i.rt_device_unregister) for rt_device_unregister
    portal.o(i.rt_portal_init) refers to device.o(i.rt_device_find) for rt_device_find
    portal.o(i.rt_portal_init) refers to device.o(i.rt_device_set_tx_complete) for rt_device_set_tx_complete
    portal.o(i.rt_portal_init) refers to device.o(i.rt_device_set_rx_indicate) for rt_device_set_rx_indicate
    portal.o(i.rt_portal_init) refers to device.o(i.rt_device_register) for rt_device_register
    portal.o(i.rt_portal_init) refers to portal.o(i._portal_init) for _portal_init
    portal.o(i.rt_portal_init) refers to portal.o(i._portal_open) for _portal_open
    portal.o(i.rt_portal_init) refers to portal.o(i._portal_close) for _portal_close
    portal.o(i.rt_portal_init) refers to portal.o(i._portal_write) for _portal_write
    portal.o(i.rt_portal_init) refers to portal.o(i._portal_read) for _portal_read
    portal.o(i.rt_portal_init) refers to portal.o(i._portal_tx_complete) for _portal_tx_complete
    portal.o(i.rt_portal_init) refers to portal.o(i._portal_rx_indicate) for _portal_rx_indicate
    ringbuffer.o(i.rt_ringbuffer_data_len) refers to ringbuffer.o(i.rt_ringbuffer_status) for rt_ringbuffer_status
    ringbuffer.o(i.rt_ringbuffer_get) refers to ringbuffer.o(i.rt_ringbuffer_data_len) for rt_ringbuffer_data_len
    ringbuffer.o(i.rt_ringbuffer_get) refers to memcpya.o(.text) for __aeabi_memcpy
    ringbuffer.o(i.rt_ringbuffer_getchar) refers to ringbuffer.o(i.rt_ringbuffer_data_len) for rt_ringbuffer_data_len
    ringbuffer.o(i.rt_ringbuffer_put) refers to ringbuffer.o(i.rt_ringbuffer_data_len) for rt_ringbuffer_data_len
    ringbuffer.o(i.rt_ringbuffer_put) refers to memcpya.o(.text) for __aeabi_memcpy
    ringbuffer.o(i.rt_ringbuffer_put_force) refers to ringbuffer.o(i.rt_ringbuffer_data_len) for rt_ringbuffer_data_len
    ringbuffer.o(i.rt_ringbuffer_put_force) refers to memcpya.o(.text) for __aeabi_memcpy
    ringbuffer.o(i.rt_ringbuffer_putchar) refers to ringbuffer.o(i.rt_ringbuffer_data_len) for rt_ringbuffer_data_len
    ringbuffer.o(i.rt_ringbuffer_putchar_force) refers to ringbuffer.o(i.rt_ringbuffer_status) for rt_ringbuffer_status
    workqueue.o(i._workqueue_thread_entry) refers to thread.o(i.rt_thread_self) for rt_thread_self
    workqueue.o(i._workqueue_thread_entry) refers to thread.o(i.rt_thread_suspend) for rt_thread_suspend
    workqueue.o(i._workqueue_thread_entry) refers to scheduler.o(i.rt_schedule) for rt_schedule
    workqueue.o(i._workqueue_thread_entry) refers to context_rvds.o(.text) for rt_hw_interrupt_disable
    workqueue.o(i._workqueue_thread_entry) refers to workqueue.o(i.rt_list_remove) for rt_list_remove
    workqueue.o(i.rt_workqueue_cancel_all_work) refers to scheduler.o(i.rt_enter_critical) for rt_enter_critical
    workqueue.o(i.rt_workqueue_cancel_all_work) refers to workqueue.o(i.rt_list_remove) for rt_list_remove
    workqueue.o(i.rt_workqueue_cancel_all_work) refers to scheduler.o(i.rt_exit_critical) for rt_exit_critical
    workqueue.o(i.rt_workqueue_cancel_work) refers to context_rvds.o(.text) for rt_hw_interrupt_disable
    workqueue.o(i.rt_workqueue_cancel_work) refers to workqueue.o(i.rt_list_remove) for rt_list_remove
    workqueue.o(i.rt_workqueue_create) refers to mem.o(i.rt_malloc) for rt_malloc
    workqueue.o(i.rt_workqueue_create) refers to thread.o(i.rt_thread_create) for rt_thread_create
    workqueue.o(i.rt_workqueue_create) refers to mem.o(i.rt_free) for rt_free
    workqueue.o(i.rt_workqueue_create) refers to thread.o(i.rt_thread_startup) for rt_thread_startup
    workqueue.o(i.rt_workqueue_create) refers to workqueue.o(i._workqueue_thread_entry) for _workqueue_thread_entry
    workqueue.o(i.rt_workqueue_critical_work) refers to context_rvds.o(.text) for rt_hw_interrupt_disable
    workqueue.o(i.rt_workqueue_critical_work) refers to workqueue.o(i.rt_list_remove) for rt_list_remove
    workqueue.o(i.rt_workqueue_critical_work) refers to workqueue.o(i.rt_list_insert_after) for rt_list_insert_after
    workqueue.o(i.rt_workqueue_critical_work) refers to thread.o(i.rt_thread_resume) for rt_thread_resume
    workqueue.o(i.rt_workqueue_critical_work) refers to scheduler.o(i.rt_schedule) for rt_schedule
    workqueue.o(i.rt_workqueue_destroy) refers to thread.o(i.rt_thread_delete) for rt_thread_delete
    workqueue.o(i.rt_workqueue_destroy) refers to mem.o(i.rt_free) for rt_free
    workqueue.o(i.rt_workqueue_dowork) refers to context_rvds.o(.text) for rt_hw_interrupt_disable
    workqueue.o(i.rt_workqueue_dowork) refers to workqueue.o(i.rt_list_remove) for rt_list_remove
    workqueue.o(i.rt_workqueue_dowork) refers to workqueue.o(i.rt_list_insert_after) for rt_list_insert_after
    workqueue.o(i.rt_workqueue_dowork) refers to thread.o(i.rt_thread_resume) for rt_thread_resume
    workqueue.o(i.rt_workqueue_dowork) refers to scheduler.o(i.rt_schedule) for rt_schedule
    shell.o(i.finsh_get_device) refers to shell.o(.data) for shell
    shell.o(i.finsh_get_echo) refers to shell.o(.data) for shell
    shell.o(i.finsh_run_line) refers to kservice.o(i.rt_kprintf) for rt_kprintf
    shell.o(i.finsh_run_line) refers to finsh_parser.o(i.finsh_parser_run) for finsh_parser_run
    shell.o(i.finsh_run_line) refers to finsh_error.o(i.finsh_errno) for finsh_errno
    shell.o(i.finsh_run_line) refers to finsh_compiler.o(i.finsh_compiler_run) for finsh_compiler_run
    shell.o(i.finsh_run_line) refers to finsh_error.o(i.finsh_error_string) for finsh_error_string
    shell.o(i.finsh_run_line) refers to finsh_vm.o(i.finsh_vm_run) for finsh_vm_run
    shell.o(i.finsh_run_line) refers to finsh_init.o(i.finsh_stack_bottom) for finsh_stack_bottom
    shell.o(i.finsh_run_line) refers to finsh_init.o(i.finsh_flush) for finsh_flush
    shell.o(i.finsh_run_line) refers to shell.o(.data) for shell
    shell.o(i.finsh_rx_ind) refers to ipc.o(i.rt_sem_release) for rt_sem_release
    shell.o(i.finsh_rx_ind) refers to shell.o(.data) for shell
    shell.o(i.finsh_set_device) refers to device.o(i.rt_device_find) for rt_device_find
    shell.o(i.finsh_set_device) refers to kservice.o(i.rt_kprintf) for rt_kprintf
    shell.o(i.finsh_set_device) refers to device.o(i.rt_device_open) for rt_device_open
    shell.o(i.finsh_set_device) refers to device.o(i.rt_device_close) for rt_device_close
    shell.o(i.finsh_set_device) refers to device.o(i.rt_device_set_rx_indicate) for rt_device_set_rx_indicate
    shell.o(i.finsh_set_device) refers to memseta.o(.text) for __aeabi_memclr4
    shell.o(i.finsh_set_device) refers to shell.o(.data) for shell
    shell.o(i.finsh_set_device) refers to shell.o(i.finsh_rx_ind) for finsh_rx_ind
    shell.o(i.finsh_set_echo) refers to shell.o(.data) for shell
    shell.o(i.finsh_system_function_init) refers to symbol.o(.data) for _syscall_table_begin
    shell.o(i.finsh_system_init) refers to shell.o(i.finsh_system_function_init) for finsh_system_function_init
    shell.o(i.finsh_system_init) refers to shell.o(i.finsh_system_var_init) for finsh_system_var_init
    shell.o(i.finsh_system_init) refers to mem.o(i.rt_malloc) for rt_malloc
    shell.o(i.finsh_system_init) refers to kservice.o(i.rt_kprintf) for rt_kprintf
    shell.o(i.finsh_system_init) refers to memseta.o(.text) for __aeabi_memclr4
    shell.o(i.finsh_system_init) refers to ipc.o(i.rt_sem_init) for rt_sem_init
    shell.o(i.finsh_system_init) refers to thread.o(i.rt_thread_init) for rt_thread_init
    shell.o(i.finsh_system_init) refers to thread.o(i.rt_thread_startup) for rt_thread_startup
    shell.o(i.finsh_system_init) refers to shell.o(.data) for shell
    shell.o(i.finsh_system_init) refers to shell.o(.bss) for finsh_thread_stack
    shell.o(i.finsh_system_init) refers to shell.o(i.finsh_thread_entry) for finsh_thread_entry
    shell.o(i.finsh_system_var_init) refers to symbol.o(.data) for _sysvar_table_begin
    shell.o(i.finsh_thread_entry) refers to finsh_init.o(i.finsh_init) for finsh_init
    shell.o(i.finsh_thread_entry) refers to kservice.o(i.rt_console_get_device) for rt_console_get_device
    shell.o(i.finsh_thread_entry) refers to device.o(i.rt_device_set_rx_indicate) for rt_device_set_rx_indicate
    shell.o(i.finsh_thread_entry) refers to device.o(i.rt_device_open) for rt_device_open
    shell.o(i.finsh_thread_entry) refers to kservice.o(i.rt_kprintf) for rt_kprintf
    shell.o(i.finsh_thread_entry) refers to ipc.o(i.rt_sem_take) for rt_sem_take
    shell.o(i.finsh_thread_entry) refers to device.o(i.rt_device_read) for rt_device_read
    shell.o(i.finsh_thread_entry) refers to shell.o(i.shell_auto_complete) for shell_auto_complete
    shell.o(i.finsh_thread_entry) refers to strlen.o(.text) for strlen
    shell.o(i.finsh_thread_entry) refers to kservice.o(i.rt_memmove) for rt_memmove
    shell.o(i.finsh_thread_entry) refers to shell.o(i.finsh_run_line) for finsh_run_line
    shell.o(i.finsh_thread_entry) refers to memseta.o(.text) for __aeabi_memclr4
    shell.o(i.finsh_thread_entry) refers to shell.o(.data) for shell
    shell.o(i.finsh_thread_entry) refers to shell.o(i.finsh_rx_ind) for finsh_rx_ind
    shell.o(i.shell_auto_complete) refers to kservice.o(i.rt_kprintf) for rt_kprintf
    shell.o(i.shell_auto_complete) refers to cmd.o(i.list_prefix) for list_prefix
    shell.o(.rti_fn.3) refers to shell.o(i.finsh_system_init) for finsh_system_init
    cmd.o(i._list_device) refers to memcpya.o(.text) for __aeabi_memcpy4
    cmd.o(i._list_device) refers to kservice.o(i.rt_strlen) for rt_strlen
    cmd.o(i._list_device) refers to cmd.o(i.object_name_maxlen) for object_name_maxlen
    cmd.o(i._list_device) refers to kservice.o(i.rt_kprintf) for rt_kprintf
    cmd.o(i._list_device) refers to cmd.o(i.object_split) for object_split
    cmd.o(i._list_device) refers to cmd.o(.constdata) for .constdata
    cmd.o(i._list_sem) refers to cmd.o(i.object_name_maxlen) for object_name_maxlen
    cmd.o(i._list_sem) refers to kservice.o(i.rt_kprintf) for rt_kprintf
    cmd.o(i._list_sem) refers to cmd.o(i.object_split) for object_split
    cmd.o(i._list_sem) refers to cmd.o(i.rt_list_len) for rt_list_len
    cmd.o(i._list_sem) refers to cmd.o(i.show_wait_queue) for show_wait_queue
    cmd.o(i._list_thread) refers to cmd.o(i.object_name_maxlen) for object_name_maxlen
    cmd.o(i._list_thread) refers to kservice.o(i.rt_kprintf) for rt_kprintf
    cmd.o(i._list_thread) refers to cmd.o(i.object_split) for object_split
    cmd.o(i._list_thread) refers to uidiv.o(.text) for __aeabi_uidivmod
    cmd.o(i._list_thread) refers to cmd.o(.conststring) for .conststring
    cmd.o(i._list_timer) refers to cmd.o(i.object_name_maxlen) for object_name_maxlen
    cmd.o(i._list_timer) refers to kservice.o(i.rt_kprintf) for rt_kprintf
    cmd.o(i._list_timer) refers to cmd.o(i.object_split) for object_split
    cmd.o(i._list_timer) refers to clock.o(i.rt_tick_get) for rt_tick_get
    cmd.o(i.hello) refers to kservice.o(i.rt_kprintf) for rt_kprintf
    cmd.o(i.list) refers to kservice.o(i.rt_kprintf) for rt_kprintf
    cmd.o(i.list) refers to strncmp.o(.text) for strncmp
    cmd.o(i.list) refers to symbol.o(.data) for _syscall_table_begin
    cmd.o(i.list) refers to finsh_vm.o(.data) for global_syscall_list
    cmd.o(i.list) refers to finsh_var.o(.data) for global_sysvar_list
    cmd.o(i.list_device) refers to cmd.o(i._list_device) for _list_device
    cmd.o(i.list_device) refers to object.o(.data) for rt_object_container
    cmd.o(i.list_prefix) refers to cmd.o(i.str_is_prefix) for str_is_prefix
    cmd.o(i.list_prefix) refers to kservice.o(i.rt_kprintf) for rt_kprintf
    cmd.o(i.list_prefix) refers to strlen.o(.text) for strlen
    cmd.o(i.list_prefix) refers to cmd.o(i.str_common) for str_common
    cmd.o(i.list_prefix) refers to kservice.o(i.rt_strncpy) for rt_strncpy
    cmd.o(i.list_prefix) refers to symbol.o(.data) for _syscall_table_begin
    cmd.o(i.list_prefix) refers to finsh_vm.o(.data) for global_syscall_list
    cmd.o(i.list_prefix) refers to finsh_var.o(.data) for global_sysvar_list
    cmd.o(i.list_sem) refers to cmd.o(i._list_sem) for _list_sem
    cmd.o(i.list_sem) refers to object.o(.data) for rt_object_container
    cmd.o(i.list_thread) refers to cmd.o(i._list_thread) for _list_thread
    cmd.o(i.list_thread) refers to object.o(.data) for rt_object_container
    cmd.o(i.list_timer) refers to cmd.o(i._list_timer) for _list_timer
    cmd.o(i.list_timer) refers to object.o(.data) for rt_object_container
    cmd.o(i.object_name_maxlen) refers to scheduler.o(i.rt_enter_critical) for rt_enter_critical
    cmd.o(i.object_name_maxlen) refers to kservice.o(i.rt_strlen) for rt_strlen
    cmd.o(i.object_name_maxlen) refers to scheduler.o(i.rt_exit_critical) for rt_exit_critical
    cmd.o(i.object_split) refers to kservice.o(i.rt_kprintf) for rt_kprintf
    cmd.o(i.show_wait_queue) refers to kservice.o(i.rt_kprintf) for rt_kprintf
    cmd.o(i.version) refers to kservice.o(i.rt_show_version) for rt_show_version
    cmd.o(.constdata) refers to cmd.o(.conststring) for .conststring
    cmd.o(FSymTab) refers to cmd.o(.rodata.name) for __fsym_hello_name
    cmd.o(FSymTab) refers to cmd.o(i.hello) for hello
    cmd.o(FSymTab) refers to cmd.o(i.version) for version
    cmd.o(FSymTab) refers to cmd.o(i.list_thread) for list_thread
    cmd.o(FSymTab) refers to cmd.o(i.list_sem) for list_sem
    cmd.o(FSymTab) refers to cmd.o(i.list_timer) for list_timer
    cmd.o(FSymTab) refers to cmd.o(i.list_device) for list_device
    cmd.o(FSymTab) refers to cmd.o(i.list) for list
    cmd.o(VSymTab) refers to cmd.o(.rodata.name) for __vsym_dummy_name
    cmd.o(VSymTab) refers to cmd.o(.data) for dummy
    finsh_compiler.o(i.finsh_compile) refers to ebi.o(i.__ARM_common_switch8) for __ARM_common_switch8
    finsh_compiler.o(i.finsh_compile) refers to finsh_compiler.o(.data) for finsh_compile_pc
    finsh_compiler.o(i.finsh_compile) refers to finsh_error.o(i.finsh_error_set) for finsh_error_set
    finsh_compiler.o(i.finsh_compiler_run) refers to finsh_compiler.o(i.finsh_type_check) for finsh_type_check
    finsh_compiler.o(i.finsh_compiler_run) refers to memseta.o(.text) for __aeabi_memclr
    finsh_compiler.o(i.finsh_compiler_run) refers to finsh_compiler.o(i.finsh_compile) for finsh_compile
    finsh_compiler.o(i.finsh_compiler_run) refers to finsh_vm.o(.bss) for text_segment
    finsh_compiler.o(i.finsh_compiler_run) refers to finsh_compiler.o(.data) for finsh_compile_sp
    finsh_compiler.o(i.finsh_type_check) refers to ebi.o(i.__ARM_common_switch8) for __ARM_common_switch8
    finsh_compiler.o(i.finsh_type_check) refers to finsh_error.o(i.finsh_error_set) for finsh_error_set
    finsh_error.o(i.finsh_errno) refers to finsh_error.o(.data) for global_errno
    finsh_error.o(i.finsh_error_init) refers to finsh_error.o(.data) for global_errno
    finsh_error.o(i.finsh_error_set) refers to finsh_error.o(.data) for global_errno
    finsh_error.o(i.finsh_error_string) refers to finsh_error.o(.data) for finsh_error_string_table
    finsh_error.o(.data) refers to finsh_error.o(.conststring) for .conststring
    finsh_heap.o(i.finsh_heap_allocate) refers to finsh_heap.o(i.finsh_heap_gc) for finsh_heap_gc
    finsh_heap.o(i.finsh_heap_allocate) refers to finsh_heap.o(i.finsh_block_split) for finsh_block_split
    finsh_heap.o(i.finsh_heap_allocate) refers to finsh_heap.o(i.finsh_block_remove) for finsh_block_remove
    finsh_heap.o(i.finsh_heap_allocate) refers to finsh_heap.o(i.finsh_block_insert) for finsh_block_insert
    finsh_heap.o(i.finsh_heap_allocate) refers to memseta.o(.text) for __aeabi_memclr4
    finsh_heap.o(i.finsh_heap_allocate) refers to finsh_heap.o(.data) for free_list
    finsh_heap.o(i.finsh_heap_free) refers to finsh_heap.o(i.finsh_block_remove) for finsh_block_remove
    finsh_heap.o(i.finsh_heap_free) refers to finsh_heap.o(i.finsh_block_insert) for finsh_block_insert
    finsh_heap.o(i.finsh_heap_free) refers to finsh_heap.o(i.finsh_block_merge) for finsh_block_merge
    finsh_heap.o(i.finsh_heap_free) refers to finsh_heap.o(.data) for allocate_list
    finsh_heap.o(i.finsh_heap_gc) refers to finsh_heap.o(i.finsh_heap_free) for finsh_heap_free
    finsh_heap.o(i.finsh_heap_gc) refers to finsh_heap.o(.data) for allocate_list
    finsh_heap.o(i.finsh_heap_gc) refers to finsh_var.o(.bss) for global_variable
    finsh_heap.o(i.finsh_heap_init) refers to memseta.o(.text) for __aeabi_memclr4
    finsh_heap.o(i.finsh_heap_init) refers to finsh_heap.o(.bss) for finsh_heap
    finsh_heap.o(i.finsh_heap_init) refers to finsh_heap.o(.data) for free_list
    finsh_init.o(i.finsh_flush) refers to finsh_parser.o(i.finsh_parser_init) for finsh_parser_init
    finsh_init.o(i.finsh_flush) refers to finsh_node.o(i.finsh_node_init) for finsh_node_init
    finsh_init.o(i.finsh_flush) refers to finsh_error.o(i.finsh_error_init) for finsh_error_init
    finsh_init.o(i.finsh_init) refers to finsh_parser.o(i.finsh_parser_init) for finsh_parser_init
    finsh_init.o(i.finsh_init) refers to finsh_node.o(i.finsh_node_init) for finsh_node_init
    finsh_init.o(i.finsh_init) refers to finsh_var.o(i.finsh_var_init) for finsh_var_init
    finsh_init.o(i.finsh_init) refers to finsh_error.o(i.finsh_error_init) for finsh_error_init
    finsh_init.o(i.finsh_init) refers to finsh_heap.o(i.finsh_heap_init) for finsh_heap_init
    finsh_init.o(i.finsh_reset) refers to finsh_node.o(i.finsh_node_init) for finsh_node_init
    finsh_init.o(i.finsh_reset) refers to finsh_var.o(i.finsh_var_init) for finsh_var_init
    finsh_init.o(i.finsh_reset) refers to finsh_error.o(i.finsh_error_init) for finsh_error_init
    finsh_init.o(i.finsh_reset) refers to finsh_heap.o(i.finsh_heap_init) for finsh_heap_init
    finsh_init.o(i.finsh_stack_bottom) refers to finsh_vm.o(.bss) for finsh_vm_stack
    finsh_node.o(i.finsh_node_allocate) refers to finsh_node.o(.bss) for global_node_table
    finsh_node.o(i.finsh_node_init) refers to memseta.o(.text) for __aeabi_memclr4
    finsh_node.o(i.finsh_node_init) refers to finsh_node.o(.bss) for global_node_table
    finsh_node.o(i.finsh_node_new_char) refers to finsh_node.o(i.finsh_node_allocate) for finsh_node_allocate
    finsh_node.o(i.finsh_node_new_char) refers to finsh_error.o(i.finsh_error_set) for finsh_error_set
    finsh_node.o(i.finsh_node_new_id) refers to finsh_var.o(i.finsh_var_lookup) for finsh_var_lookup
    finsh_node.o(i.finsh_node_new_id) refers to finsh_var.o(i.finsh_sysvar_lookup) for finsh_sysvar_lookup
    finsh_node.o(i.finsh_node_new_id) refers to finsh_vm.o(i.finsh_syscall_lookup) for finsh_syscall_lookup
    finsh_node.o(i.finsh_node_new_id) refers to finsh_node.o(i.finsh_node_allocate) for finsh_node_allocate
    finsh_node.o(i.finsh_node_new_id) refers to finsh_error.o(i.finsh_error_set) for finsh_error_set
    finsh_node.o(i.finsh_node_new_int) refers to finsh_node.o(i.finsh_node_allocate) for finsh_node_allocate
    finsh_node.o(i.finsh_node_new_int) refers to finsh_error.o(i.finsh_error_set) for finsh_error_set
    finsh_node.o(i.finsh_node_new_long) refers to finsh_node.o(i.finsh_node_allocate) for finsh_node_allocate
    finsh_node.o(i.finsh_node_new_long) refers to finsh_error.o(i.finsh_error_set) for finsh_error_set
    finsh_node.o(i.finsh_node_new_ptr) refers to finsh_node.o(i.finsh_node_allocate) for finsh_node_allocate
    finsh_node.o(i.finsh_node_new_ptr) refers to finsh_error.o(i.finsh_error_set) for finsh_error_set
    finsh_node.o(i.finsh_node_new_string) refers to finsh_node.o(i.finsh_node_allocate) for finsh_node_allocate
    finsh_node.o(i.finsh_node_new_string) refers to finsh_error.o(i.finsh_error_set) for finsh_error_set
    finsh_node.o(i.finsh_node_new_string) refers to strlen.o(.text) for strlen
    finsh_node.o(i.finsh_node_new_string) refers to finsh_heap.o(i.finsh_heap_allocate) for finsh_heap_allocate
    finsh_node.o(i.finsh_node_new_string) refers to strncpy.o(.text) for strncpy
    finsh_ops.o(i.OP_add_byte) refers to finsh_vm.o(.data) for finsh_sp
    finsh_ops.o(i.OP_add_dword) refers to finsh_vm.o(.data) for finsh_sp
    finsh_ops.o(i.OP_add_word) refers to finsh_vm.o(.data) for finsh_sp
    finsh_ops.o(i.OP_and_byte) refers to finsh_vm.o(.data) for finsh_sp
    finsh_ops.o(i.OP_and_dword) refers to finsh_vm.o(.data) for finsh_sp
    finsh_ops.o(i.OP_and_word) refers to finsh_vm.o(.data) for finsh_sp
    finsh_ops.o(i.OP_bw_byte) refers to finsh_vm.o(.data) for finsh_sp
    finsh_ops.o(i.OP_bw_dword) refers to finsh_vm.o(.data) for finsh_sp
    finsh_ops.o(i.OP_bw_word) refers to finsh_vm.o(.data) for finsh_sp
    finsh_ops.o(i.OP_call) refers to ebi.o(i.__ARM_common_switch8) for __ARM_common_switch8
    finsh_ops.o(i.OP_call) refers to finsh_vm.o(.data) for finsh_pc
    finsh_ops.o(i.OP_div_byte) refers to idiv.o(.text) for __aeabi_idivmod
    finsh_ops.o(i.OP_div_byte) refers to finsh_vm.o(.data) for finsh_sp
    finsh_ops.o(i.OP_div_dword) refers to idiv.o(.text) for __aeabi_idivmod
    finsh_ops.o(i.OP_div_dword) refers to finsh_vm.o(.data) for finsh_sp
    finsh_ops.o(i.OP_div_word) refers to idiv.o(.text) for __aeabi_idivmod
    finsh_ops.o(i.OP_div_word) refers to finsh_vm.o(.data) for finsh_sp
    finsh_ops.o(i.OP_ld_byte) refers to finsh_vm.o(.data) for finsh_pc
    finsh_ops.o(i.OP_ld_dword) refers to finsh_vm.o(.data) for finsh_pc
    finsh_ops.o(i.OP_ld_value_byte) refers to finsh_vm.o(.data) for finsh_pc
    finsh_ops.o(i.OP_ld_value_byte_stack) refers to finsh_vm.o(.data) for finsh_sp
    finsh_ops.o(i.OP_ld_value_dword) refers to finsh_vm.o(.data) for finsh_pc
    finsh_ops.o(i.OP_ld_value_dword_stack) refers to finsh_vm.o(.data) for finsh_sp
    finsh_ops.o(i.OP_ld_value_word) refers to finsh_vm.o(.data) for finsh_pc
    finsh_ops.o(i.OP_ld_value_word_stack) refers to finsh_vm.o(.data) for finsh_sp
    finsh_ops.o(i.OP_ld_word) refers to finsh_vm.o(.data) for finsh_pc
    finsh_ops.o(i.OP_mod_byte) refers to idiv.o(.text) for __aeabi_idivmod
    finsh_ops.o(i.OP_mod_byte) refers to finsh_vm.o(.data) for finsh_sp
    finsh_ops.o(i.OP_mod_dword) refers to idiv.o(.text) for __aeabi_idivmod
    finsh_ops.o(i.OP_mod_dword) refers to finsh_vm.o(.data) for finsh_sp
    finsh_ops.o(i.OP_mod_word) refers to idiv.o(.text) for __aeabi_idivmod
    finsh_ops.o(i.OP_mod_word) refers to finsh_vm.o(.data) for finsh_sp
    finsh_ops.o(i.OP_mul_byte) refers to finsh_vm.o(.data) for finsh_sp
    finsh_ops.o(i.OP_mul_dword) refers to finsh_vm.o(.data) for finsh_sp
    finsh_ops.o(i.OP_mul_word) refers to finsh_vm.o(.data) for finsh_sp
    finsh_ops.o(i.OP_or_byte) refers to finsh_vm.o(.data) for finsh_sp
    finsh_ops.o(i.OP_or_dword) refers to finsh_vm.o(.data) for finsh_sp
    finsh_ops.o(i.OP_or_word) refers to finsh_vm.o(.data) for finsh_sp
    finsh_ops.o(i.OP_pop) refers to finsh_vm.o(.data) for finsh_sp
    finsh_ops.o(i.OP_shl_byte) refers to finsh_vm.o(.data) for finsh_sp
    finsh_ops.o(i.OP_shl_dword) refers to finsh_vm.o(.data) for finsh_sp
    finsh_ops.o(i.OP_shl_word) refers to finsh_vm.o(.data) for finsh_sp
    finsh_ops.o(i.OP_shr_byte) refers to finsh_vm.o(.data) for finsh_sp
    finsh_ops.o(i.OP_shr_dword) refers to finsh_vm.o(.data) for finsh_sp
    finsh_ops.o(i.OP_shr_word) refers to finsh_vm.o(.data) for finsh_sp
    finsh_ops.o(i.OP_st_byte) refers to finsh_vm.o(.data) for finsh_sp
    finsh_ops.o(i.OP_st_dword) refers to finsh_vm.o(.data) for finsh_sp
    finsh_ops.o(i.OP_st_word) refers to finsh_vm.o(.data) for finsh_sp
    finsh_ops.o(i.OP_sub_byte) refers to finsh_vm.o(.data) for finsh_sp
    finsh_ops.o(i.OP_sub_dword) refers to finsh_vm.o(.data) for finsh_sp
    finsh_ops.o(i.OP_sub_word) refers to finsh_vm.o(.data) for finsh_sp
    finsh_ops.o(i.OP_xor_byte) refers to finsh_vm.o(.data) for finsh_sp
    finsh_ops.o(i.OP_xor_dword) refers to finsh_vm.o(.data) for finsh_sp
    finsh_ops.o(i.OP_xor_word) refers to finsh_vm.o(.data) for finsh_sp
    finsh_ops.o(.constdata) refers to finsh_ops.o(i.OP_no_op) for OP_no_op
    finsh_ops.o(.constdata) refers to finsh_ops.o(i.OP_add_byte) for OP_add_byte
    finsh_ops.o(.constdata) refers to finsh_ops.o(i.OP_add_word) for OP_add_word
    finsh_ops.o(.constdata) refers to finsh_ops.o(i.OP_add_dword) for OP_add_dword
    finsh_ops.o(.constdata) refers to finsh_ops.o(i.OP_sub_byte) for OP_sub_byte
    finsh_ops.o(.constdata) refers to finsh_ops.o(i.OP_sub_word) for OP_sub_word
    finsh_ops.o(.constdata) refers to finsh_ops.o(i.OP_sub_dword) for OP_sub_dword
    finsh_ops.o(.constdata) refers to finsh_ops.o(i.OP_div_byte) for OP_div_byte
    finsh_ops.o(.constdata) refers to finsh_ops.o(i.OP_div_word) for OP_div_word
    finsh_ops.o(.constdata) refers to finsh_ops.o(i.OP_div_dword) for OP_div_dword
    finsh_ops.o(.constdata) refers to finsh_ops.o(i.OP_mod_byte) for OP_mod_byte
    finsh_ops.o(.constdata) refers to finsh_ops.o(i.OP_mod_word) for OP_mod_word
    finsh_ops.o(.constdata) refers to finsh_ops.o(i.OP_mod_dword) for OP_mod_dword
    finsh_ops.o(.constdata) refers to finsh_ops.o(i.OP_mul_byte) for OP_mul_byte
    finsh_ops.o(.constdata) refers to finsh_ops.o(i.OP_mul_word) for OP_mul_word
    finsh_ops.o(.constdata) refers to finsh_ops.o(i.OP_mul_dword) for OP_mul_dword
    finsh_ops.o(.constdata) refers to finsh_ops.o(i.OP_and_byte) for OP_and_byte
    finsh_ops.o(.constdata) refers to finsh_ops.o(i.OP_and_word) for OP_and_word
    finsh_ops.o(.constdata) refers to finsh_ops.o(i.OP_and_dword) for OP_and_dword
    finsh_ops.o(.constdata) refers to finsh_ops.o(i.OP_or_byte) for OP_or_byte
    finsh_ops.o(.constdata) refers to finsh_ops.o(i.OP_or_word) for OP_or_word
    finsh_ops.o(.constdata) refers to finsh_ops.o(i.OP_or_dword) for OP_or_dword
    finsh_ops.o(.constdata) refers to finsh_ops.o(i.OP_xor_byte) for OP_xor_byte
    finsh_ops.o(.constdata) refers to finsh_ops.o(i.OP_xor_word) for OP_xor_word
    finsh_ops.o(.constdata) refers to finsh_ops.o(i.OP_xor_dword) for OP_xor_dword
    finsh_ops.o(.constdata) refers to finsh_ops.o(i.OP_bw_byte) for OP_bw_byte
    finsh_ops.o(.constdata) refers to finsh_ops.o(i.OP_bw_word) for OP_bw_word
    finsh_ops.o(.constdata) refers to finsh_ops.o(i.OP_bw_dword) for OP_bw_dword
    finsh_ops.o(.constdata) refers to finsh_ops.o(i.OP_shl_byte) for OP_shl_byte
    finsh_ops.o(.constdata) refers to finsh_ops.o(i.OP_shl_word) for OP_shl_word
    finsh_ops.o(.constdata) refers to finsh_ops.o(i.OP_shl_dword) for OP_shl_dword
    finsh_ops.o(.constdata) refers to finsh_ops.o(i.OP_shr_byte) for OP_shr_byte
    finsh_ops.o(.constdata) refers to finsh_ops.o(i.OP_shr_word) for OP_shr_word
    finsh_ops.o(.constdata) refers to finsh_ops.o(i.OP_shr_dword) for OP_shr_dword
    finsh_ops.o(.constdata) refers to finsh_ops.o(i.OP_ld_byte) for OP_ld_byte
    finsh_ops.o(.constdata) refers to finsh_ops.o(i.OP_ld_word) for OP_ld_word
    finsh_ops.o(.constdata) refers to finsh_ops.o(i.OP_ld_dword) for OP_ld_dword
    finsh_ops.o(.constdata) refers to finsh_ops.o(i.OP_ld_value_byte) for OP_ld_value_byte
    finsh_ops.o(.constdata) refers to finsh_ops.o(i.OP_ld_value_word) for OP_ld_value_word
    finsh_ops.o(.constdata) refers to finsh_ops.o(i.OP_ld_value_dword) for OP_ld_value_dword
    finsh_ops.o(.constdata) refers to finsh_ops.o(i.OP_st_byte) for OP_st_byte
    finsh_ops.o(.constdata) refers to finsh_ops.o(i.OP_st_word) for OP_st_word
    finsh_ops.o(.constdata) refers to finsh_ops.o(i.OP_st_dword) for OP_st_dword
    finsh_ops.o(.constdata) refers to finsh_ops.o(i.OP_pop) for OP_pop
    finsh_ops.o(.constdata) refers to finsh_ops.o(i.OP_call) for OP_call
    finsh_ops.o(.constdata) refers to finsh_ops.o(i.OP_ld_value_byte_stack) for OP_ld_value_byte_stack
    finsh_ops.o(.constdata) refers to finsh_ops.o(i.OP_ld_value_word_stack) for OP_ld_value_word_stack
    finsh_ops.o(.constdata) refers to finsh_ops.o(i.OP_ld_value_dword_stack) for OP_ld_value_dword_stack
    finsh_parser.o(i.finsh_parser_init) refers to memseta.o(.text) for __aeabi_memclr4
    finsh_parser.o(i.finsh_parser_run) refers to finsh_token.o(i.finsh_token_init) for finsh_token_init
    finsh_parser.o(i.finsh_parser_run) refers to finsh_token.o(i.finsh_token_token) for finsh_token_token
    finsh_parser.o(i.finsh_parser_run) refers to finsh_parser.o(i.proc_expr_statement) for proc_expr_statement
    finsh_parser.o(i.finsh_parser_run) refers to finsh_parser.o(i.proc_variable_decl) for proc_variable_decl
    finsh_parser.o(i.make_sys_node) refers to finsh_node.o(i.finsh_node_allocate) for finsh_node_allocate
    finsh_parser.o(i.make_sys_node) refers to finsh_error.o(i.finsh_error_set) for finsh_error_set
    finsh_parser.o(i.proc_additive_expr) refers to finsh_parser.o(i.proc_multiplicative_expr) for proc_multiplicative_expr
    finsh_parser.o(i.proc_additive_expr) refers to finsh_token.o(i.finsh_token_token) for finsh_token_token
    finsh_parser.o(i.proc_additive_expr) refers to finsh_error.o(i.finsh_error_set) for finsh_error_set
    finsh_parser.o(i.proc_additive_expr) refers to finsh_parser.o(i.make_sys_node) for make_sys_node
    finsh_parser.o(i.proc_and_expr) refers to finsh_parser.o(i.proc_shift_expr) for proc_shift_expr
    finsh_parser.o(i.proc_and_expr) refers to finsh_token.o(i.finsh_token_token) for finsh_token_token
    finsh_parser.o(i.proc_and_expr) refers to finsh_error.o(i.finsh_error_set) for finsh_error_set
    finsh_parser.o(i.proc_and_expr) refers to finsh_parser.o(i.make_sys_node) for make_sys_node
    finsh_parser.o(i.proc_assign_expr) refers to finsh_parser.o(i.proc_inclusive_or_expr) for proc_inclusive_or_expr
    finsh_parser.o(i.proc_assign_expr) refers to finsh_token.o(i.finsh_token_token) for finsh_token_token
    finsh_parser.o(i.proc_assign_expr) refers to finsh_parser.o(i.make_sys_node) for make_sys_node
    finsh_parser.o(i.proc_cast_expr) refers to finsh_token.o(i.finsh_token_token) for finsh_token_token
    finsh_parser.o(i.proc_cast_expr) refers to finsh_parser.o(i.proc_type) for proc_type
    finsh_parser.o(i.proc_cast_expr) refers to finsh_error.o(i.finsh_error_set) for finsh_error_set
    finsh_parser.o(i.proc_cast_expr) refers to finsh_parser.o(i.proc_unary_expr) for proc_unary_expr
    finsh_parser.o(i.proc_exclusive_or_expr) refers to finsh_parser.o(i.proc_and_expr) for proc_and_expr
    finsh_parser.o(i.proc_exclusive_or_expr) refers to finsh_token.o(i.finsh_token_token) for finsh_token_token
    finsh_parser.o(i.proc_exclusive_or_expr) refers to finsh_error.o(i.finsh_error_set) for finsh_error_set
    finsh_parser.o(i.proc_exclusive_or_expr) refers to finsh_parser.o(i.make_sys_node) for make_sys_node
    finsh_parser.o(i.proc_expr) refers to finsh_parser.o(i.proc_assign_expr) for proc_assign_expr
    finsh_parser.o(i.proc_expr_statement) refers to finsh_token.o(i.finsh_token_token) for finsh_token_token
    finsh_parser.o(i.proc_expr_statement) refers to finsh_parser.o(i.proc_expr) for proc_expr
    finsh_parser.o(i.proc_expr_statement) refers to finsh_error.o(i.finsh_error_set) for finsh_error_set
    finsh_parser.o(i.proc_identifier) refers to finsh_token.o(i.finsh_token_token) for finsh_token_token
    finsh_parser.o(i.proc_identifier) refers to finsh_error.o(i.finsh_error_set) for finsh_error_set
    finsh_parser.o(i.proc_identifier) refers to strncpy.o(.text) for strncpy
    finsh_parser.o(i.proc_inclusive_or_expr) refers to finsh_parser.o(i.proc_exclusive_or_expr) for proc_exclusive_or_expr
    finsh_parser.o(i.proc_inclusive_or_expr) refers to finsh_token.o(i.finsh_token_token) for finsh_token_token
    finsh_parser.o(i.proc_inclusive_or_expr) refers to finsh_error.o(i.finsh_error_set) for finsh_error_set
    finsh_parser.o(i.proc_inclusive_or_expr) refers to finsh_parser.o(i.make_sys_node) for make_sys_node
    finsh_parser.o(i.proc_multiplicative_expr) refers to finsh_parser.o(i.proc_cast_expr) for proc_cast_expr
    finsh_parser.o(i.proc_multiplicative_expr) refers to finsh_token.o(i.finsh_token_token) for finsh_token_token
    finsh_parser.o(i.proc_multiplicative_expr) refers to finsh_error.o(i.finsh_error_set) for finsh_error_set
    finsh_parser.o(i.proc_multiplicative_expr) refers to finsh_parser.o(i.make_sys_node) for make_sys_node
    finsh_parser.o(i.proc_param_list) refers to finsh_parser.o(i.proc_assign_expr) for proc_assign_expr
    finsh_parser.o(i.proc_param_list) refers to finsh_token.o(i.finsh_token_token) for finsh_token_token
    finsh_parser.o(i.proc_param_list) refers to finsh_error.o(i.finsh_error_set) for finsh_error_set
    finsh_parser.o(i.proc_postfix_expr) refers to finsh_parser.o(i.proc_primary_expr) for proc_primary_expr
    finsh_parser.o(i.proc_postfix_expr) refers to finsh_token.o(i.finsh_token_token) for finsh_token_token
    finsh_parser.o(i.proc_postfix_expr) refers to finsh_parser.o(i.make_sys_node) for make_sys_node
    finsh_parser.o(i.proc_postfix_expr) refers to finsh_parser.o(i.proc_param_list) for proc_param_list
    finsh_parser.o(i.proc_postfix_expr) refers to finsh_error.o(i.finsh_error_set) for finsh_error_set
    finsh_parser.o(i.proc_primary_expr) refers to finsh_token.o(i.finsh_token_token) for finsh_token_token
    finsh_parser.o(i.proc_primary_expr) refers to finsh_parser.o(i.proc_identifier) for proc_identifier
    finsh_parser.o(i.proc_primary_expr) refers to finsh_node.o(i.finsh_node_new_id) for finsh_node_new_id
    finsh_parser.o(i.proc_primary_expr) refers to finsh_parser.o(i.proc_expr) for proc_expr
    finsh_parser.o(i.proc_primary_expr) refers to finsh_error.o(i.finsh_error_set) for finsh_error_set
    finsh_parser.o(i.proc_primary_expr) refers to finsh_node.o(i.finsh_node_new_int) for finsh_node_new_int
    finsh_parser.o(i.proc_primary_expr) refers to finsh_node.o(i.finsh_node_new_long) for finsh_node_new_long
    finsh_parser.o(i.proc_primary_expr) refers to finsh_node.o(i.finsh_node_new_char) for finsh_node_new_char
    finsh_parser.o(i.proc_primary_expr) refers to finsh_node.o(i.finsh_node_new_string) for finsh_node_new_string
    finsh_parser.o(i.proc_primary_expr) refers to finsh_node.o(i.finsh_node_new_ptr) for finsh_node_new_ptr
    finsh_parser.o(i.proc_shift_expr) refers to finsh_parser.o(i.proc_additive_expr) for proc_additive_expr
    finsh_parser.o(i.proc_shift_expr) refers to finsh_token.o(i.finsh_token_token) for finsh_token_token
    finsh_parser.o(i.proc_shift_expr) refers to finsh_error.o(i.finsh_error_set) for finsh_error_set
    finsh_parser.o(i.proc_shift_expr) refers to finsh_parser.o(i.make_sys_node) for make_sys_node
    finsh_parser.o(i.proc_type) refers to finsh_token.o(i.finsh_token_token) for finsh_token_token
    finsh_parser.o(i.proc_type) refers to ebi.o(i.__ARM_common_switch8) for __ARM_common_switch8
    finsh_parser.o(i.proc_type) refers to finsh_error.o(i.finsh_error_set) for finsh_error_set
    finsh_parser.o(i.proc_unary_expr) refers to finsh_token.o(i.finsh_token_token) for finsh_token_token
    finsh_parser.o(i.proc_unary_expr) refers to ebi.o(i.__ARM_common_switch8) for __ARM_common_switch8
    finsh_parser.o(i.proc_unary_expr) refers to finsh_parser.o(i.proc_cast_expr) for proc_cast_expr
    finsh_parser.o(i.proc_unary_expr) refers to finsh_parser.o(i.make_sys_node) for make_sys_node
    finsh_parser.o(i.proc_unary_expr) refers to finsh_node.o(i.finsh_node_new_long) for finsh_node_new_long
    finsh_parser.o(i.proc_unary_expr) refers to finsh_parser.o(i.proc_postfix_expr) for proc_postfix_expr
    finsh_parser.o(i.proc_variable_decl) refers to finsh_parser.o(i.proc_type) for proc_type
    finsh_parser.o(i.proc_variable_decl) refers to finsh_parser.o(i.proc_identifier) for proc_identifier
    finsh_parser.o(i.proc_variable_decl) refers to finsh_var.o(i.finsh_var_insert) for finsh_var_insert
    finsh_parser.o(i.proc_variable_decl) refers to finsh_error.o(i.finsh_error_set) for finsh_error_set
    finsh_parser.o(i.proc_variable_decl) refers to finsh_token.o(i.finsh_token_token) for finsh_token_token
    finsh_parser.o(i.proc_variable_decl) refers to finsh_parser.o(i.proc_assign_expr) for proc_assign_expr
    finsh_parser.o(i.proc_variable_decl) refers to finsh_node.o(i.finsh_node_new_id) for finsh_node_new_id
    finsh_parser.o(i.proc_variable_decl) refers to finsh_parser.o(i.make_sys_node) for make_sys_node
    finsh_var.o(i.finsh_sysvar_append) refers to mem.o(i.rt_malloc) for rt_malloc
    finsh_var.o(i.finsh_sysvar_append) refers to kservice.o(i.rt_strdup) for rt_strdup
    finsh_var.o(i.finsh_sysvar_append) refers to finsh_var.o(.data) for global_sysvar_list
    finsh_var.o(i.finsh_sysvar_lookup) refers to strcmp.o(.text) for strcmp
    finsh_var.o(i.finsh_sysvar_lookup) refers to strlen.o(.text) for strlen
    finsh_var.o(i.finsh_sysvar_lookup) refers to strncmp.o(.text) for strncmp
    finsh_var.o(i.finsh_sysvar_lookup) refers to symbol.o(.data) for _sysvar_table_begin
    finsh_var.o(i.finsh_sysvar_lookup) refers to finsh_var.o(.data) for global_sysvar_list
    finsh_var.o(i.finsh_var_delete) refers to strncmp.o(.text) for strncmp
    finsh_var.o(i.finsh_var_delete) refers to memseta.o(.text) for __aeabi_memclr4
    finsh_var.o(i.finsh_var_delete) refers to finsh_var.o(.bss) for global_variable
    finsh_var.o(i.finsh_var_init) refers to memseta.o(.text) for __aeabi_memclr4
    finsh_var.o(i.finsh_var_init) refers to finsh_var.o(.bss) for global_variable
    finsh_var.o(i.finsh_var_insert) refers to strncmp.o(.text) for strncmp
    finsh_var.o(i.finsh_var_insert) refers to strncpy.o(.text) for strncpy
    finsh_var.o(i.finsh_var_insert) refers to finsh_var.o(.bss) for global_variable
    finsh_var.o(i.finsh_var_lookup) refers to strncmp.o(.text) for strncmp
    finsh_var.o(i.finsh_var_lookup) refers to finsh_var.o(.bss) for global_variable
    finsh_vm.o(i.finsh_syscall_append) refers to mem.o(i.rt_malloc) for rt_malloc
    finsh_vm.o(i.finsh_syscall_append) refers to kservice.o(i.rt_strdup) for rt_strdup
    finsh_vm.o(i.finsh_syscall_append) refers to finsh_vm.o(.data) for global_syscall_list
    finsh_vm.o(i.finsh_syscall_lookup) refers to strcmp.o(.text) for strcmp
    finsh_vm.o(i.finsh_syscall_lookup) refers to strlen.o(.text) for strlen
    finsh_vm.o(i.finsh_syscall_lookup) refers to strncmp.o(.text) for strncmp
    finsh_vm.o(i.finsh_syscall_lookup) refers to symbol.o(.data) for _syscall_table_begin
    finsh_vm.o(i.finsh_syscall_lookup) refers to finsh_vm.o(.data) for global_syscall_list
    finsh_vm.o(i.finsh_vm_run) refers to finsh_vm.o(.bss) for finsh_vm_stack
    finsh_vm.o(i.finsh_vm_run) refers to finsh_vm.o(.data) for finsh_sp
    finsh_vm.o(i.finsh_vm_run) refers to finsh_ops.o(.constdata) for op_table
    finsh_token.o(i.finsh_token_get_token) refers to strncpy.o(.text) for strncpy
    finsh_token.o(i.finsh_token_init) refers to memseta.o(.text) for __aeabi_memclr4
    finsh_token.o(i.finsh_token_token) refers to finsh_token.o(i.token_run) for token_run
    finsh_token.o(i.token_get_string) refers to finsh_token.o(i.token_next_char) for token_next_char
    finsh_token.o(i.token_get_string) refers to finsh_token.o(i.token_prev_char) for token_prev_char
    finsh_token.o(i.token_match_name) refers to strcmp.o(.text) for strcmp
    finsh_token.o(i.token_match_name) refers to finsh_token.o(.constdata) for finsh_name_table
    finsh_token.o(i.token_next_char) refers to strlen.o(.text) for strlen
    finsh_token.o(i.token_proc_char) refers to finsh_token.o(i.token_next_char) for token_next_char
    finsh_token.o(i.token_proc_char) refers to finsh_token.o(i.token_prev_char) for token_prev_char
    finsh_token.o(i.token_proc_char) refers to atoi.o(.text) for atoi
    finsh_token.o(i.token_proc_char) refers to finsh_error.o(i.finsh_error_set) for finsh_error_set
    finsh_token.o(i.token_proc_escape) refers to finsh_token.o(i.token_next_char) for token_next_char
    finsh_token.o(i.token_proc_escape) refers to finsh_token.o(i.token_prev_char) for token_prev_char
    finsh_token.o(i.token_proc_number) refers to finsh_token.o(i.token_next_char) for token_next_char
    finsh_token.o(i.token_proc_number) refers to finsh_token.o(i.token_prev_char) for token_prev_char
    finsh_token.o(i.token_proc_number) refers to strlen.o(.text) for strlen
    finsh_token.o(i.token_proc_number) refers to finsh_token.o(i.token_spec_number) for token_spec_number
    finsh_token.o(i.token_proc_string) refers to finsh_token.o(i.token_next_char) for token_next_char
    finsh_token.o(i.token_proc_string) refers to finsh_error.o(i.finsh_error_set) for finsh_error_set
    finsh_token.o(i.token_proc_string) refers to finsh_token.o(i.token_proc_escape) for token_proc_escape
    finsh_token.o(i.token_run) refers to finsh_token.o(i.token_trim_space) for token_trim_space
    finsh_token.o(i.token_run) refers to finsh_token.o(i.token_get_string) for token_get_string
    finsh_token.o(i.token_run) refers to finsh_token.o(i.token_match_name) for token_match_name
    finsh_token.o(i.token_run) refers to finsh_token.o(i.token_next_char) for token_next_char
    finsh_token.o(i.token_run) refers to ebi.o(i.__ARM_common_switch8) for __ARM_common_switch8
    finsh_token.o(i.token_run) refers to finsh_token.o(i.token_prev_char) for token_prev_char
    finsh_token.o(i.token_run) refers to finsh_token.o(i.token_proc_char) for token_proc_char
    finsh_token.o(i.token_run) refers to finsh_token.o(i.token_proc_string) for token_proc_string
    finsh_token.o(i.token_run) refers to finsh_token.o(i.token_proc_number) for token_proc_number
    finsh_token.o(i.token_run) refers to finsh_error.o(i.finsh_error_set) for finsh_error_set
    finsh_token.o(i.token_trim_space) refers to finsh_token.o(i.token_next_char) for token_next_char
    finsh_token.o(i.token_trim_space) refers to finsh_token.o(i.token_prev_char) for token_prev_char
    finsh_token.o(.constdata) refers to finsh_token.o(.conststring) for .conststring
    components.o(i.rt_components_board_init) refers to components.o(.rti_fn.0.end) for __rt_init_rti_board_start
    components.o(i.rt_components_board_init) refers to components.o(.rti_fn.1.end) for __rt_init_rti_board_end
    components.o(i.rt_components_init) refers to components.o(.rti_fn.1.end) for __rt_init_rti_board_end
    components.o(i.rt_components_init) refers to components.o(.rti_fn.6.end) for __rt_init_rti_end
    components.o(.rti_fn.0) refers to components.o(i.rti_start) for rti_start
    components.o(.rti_fn.0.end) refers to components.o(i.rti_board_start) for rti_board_start
    components.o(.rti_fn.1.end) refers to components.o(i.rti_board_end) for rti_board_end
    components.o(.rti_fn.6.end) refers to components.o(i.rti_end) for rti_end
    entry.o(.ARM.Collect$$$$00000000) refers (Special) to entry10a.o(.ARM.Collect$$$$0000000D) for __rt_final_cpp
    entry.o(.ARM.Collect$$$$00000000) refers (Special) to entry11a.o(.ARM.Collect$$$$0000000F) for __rt_final_exit
    entry.o(.ARM.Collect$$$$00000000) refers (Special) to entry7b.o(.ARM.Collect$$$$00000008) for _main_clock
    entry.o(.ARM.Collect$$$$00000000) refers (Special) to entry8b.o(.ARM.Collect$$$$0000000A) for _main_cpp_init
    entry.o(.ARM.Collect$$$$00000000) refers (Special) to entry9a.o(.ARM.Collect$$$$0000000B) for _main_init
    entry.o(.ARM.Collect$$$$00000000) refers (Special) to entry5.o(.ARM.Collect$$$$00000004) for _main_scatterload
    entry.o(.ARM.Collect$$$$00000000) refers (Special) to entry2.o(.ARM.Collect$$$$00000001) for _main_stk
    idiv.o(.text) refers to uidiv.o(.text) for __aeabi_uidivmod
    printfb.o(i.__0fprintf$bare) refers to printfb.o(i._printf_core) for _printf_core
    printfb.o(i.__0fprintf$bare) refers to printf.o(i.fputc) for fputc
    printfb.o(i.__0printf$bare) refers to printfb.o(i._printf_core) for _printf_core
    printfb.o(i.__0printf$bare) refers to printf.o(i.fputc) for fputc
    printfb.o(i.__0printf$bare) refers to stdout.o(.data) for __stdout
    printfb.o(i.__0snprintf$bare) refers to printfb.o(i._printf_core) for _printf_core
    printfb.o(i.__0snprintf$bare) refers to printfb.o(i._snputc) for _snputc
    printfb.o(i.__0sprintf$bare) refers to printfb.o(i._printf_core) for _printf_core
    printfb.o(i.__0sprintf$bare) refers to printfb.o(i._sputc) for _sputc
    printfb.o(i.__0vfprintf$bare) refers to printfb.o(i._printf_core) for _printf_core
    printfb.o(i.__0vfprintf$bare) refers to printf.o(i.fputc) for fputc
    printfb.o(i.__0vprintf$bare) refers to printfb.o(i._printf_core) for _printf_core
    printfb.o(i.__0vprintf$bare) refers to printf.o(i.fputc) for fputc
    printfb.o(i.__0vprintf$bare) refers to stdout.o(.data) for __stdout
    printfb.o(i.__0vsnprintf$bare) refers to printfb.o(i._printf_core) for _printf_core
    printfb.o(i.__0vsnprintf$bare) refers to printfb.o(i._snputc) for _snputc
    printfb.o(i.__0vsprintf$bare) refers to printfb.o(i._printf_core) for _printf_core
    printfb.o(i.__0vsprintf$bare) refers to printfb.o(i._sputc) for _sputc
    printf0.o(i.__0fprintf$0) refers to printf0.o(i._printf_core) for _printf_core
    printf0.o(i.__0fprintf$0) refers to printf.o(i.fputc) for fputc
    printf0.o(i.__0printf$0) refers to printf0.o(i._printf_core) for _printf_core
    printf0.o(i.__0printf$0) refers to printf.o(i.fputc) for fputc
    printf0.o(i.__0printf$0) refers to stdout.o(.data) for __stdout
    printf0.o(i.__0snprintf$0) refers to printf0.o(i._printf_core) for _printf_core
    printf0.o(i.__0snprintf$0) refers to printf0.o(i._snputc) for _snputc
    printf0.o(i.__0sprintf$0) refers to printf0.o(i._printf_core) for _printf_core
    printf0.o(i.__0sprintf$0) refers to printf0.o(i._sputc) for _sputc
    printf0.o(i.__0vfprintf$0) refers to printf0.o(i._printf_core) for _printf_core
    printf0.o(i.__0vfprintf$0) refers to printf.o(i.fputc) for fputc
    printf0.o(i.__0vprintf$0) refers to printf0.o(i._printf_core) for _printf_core
    printf0.o(i.__0vprintf$0) refers to printf.o(i.fputc) for fputc
    printf0.o(i.__0vprintf$0) refers to stdout.o(.data) for __stdout
    printf0.o(i.__0vsnprintf$0) refers to printf0.o(i._printf_core) for _printf_core
    printf0.o(i.__0vsnprintf$0) refers to printf0.o(i._snputc) for _snputc
    printf0.o(i.__0vsprintf$0) refers to printf0.o(i._printf_core) for _printf_core
    printf0.o(i.__0vsprintf$0) refers to printf0.o(i._sputc) for _sputc
    printf1.o(i.__0fprintf$1) refers to printf1.o(i._printf_core) for _printf_core
    printf1.o(i.__0fprintf$1) refers to printf.o(i.fputc) for fputc
    printf1.o(i.__0printf$1) refers to printf1.o(i._printf_core) for _printf_core
    printf1.o(i.__0printf$1) refers to printf.o(i.fputc) for fputc
    printf1.o(i.__0printf$1) refers to stdout.o(.data) for __stdout
    printf1.o(i.__0snprintf$1) refers to printf1.o(i._printf_core) for _printf_core
    printf1.o(i.__0snprintf$1) refers to printf1.o(i._snputc) for _snputc
    printf1.o(i.__0sprintf$1) refers to printf1.o(i._printf_core) for _printf_core
    printf1.o(i.__0sprintf$1) refers to printf1.o(i._sputc) for _sputc
    printf1.o(i.__0vfprintf$1) refers to printf1.o(i._printf_core) for _printf_core
    printf1.o(i.__0vfprintf$1) refers to printf.o(i.fputc) for fputc
    printf1.o(i.__0vprintf$1) refers to printf1.o(i._printf_core) for _printf_core
    printf1.o(i.__0vprintf$1) refers to printf.o(i.fputc) for fputc
    printf1.o(i.__0vprintf$1) refers to stdout.o(.data) for __stdout
    printf1.o(i.__0vsnprintf$1) refers to printf1.o(i._printf_core) for _printf_core
    printf1.o(i.__0vsnprintf$1) refers to printf1.o(i._snputc) for _snputc
    printf1.o(i.__0vsprintf$1) refers to printf1.o(i._printf_core) for _printf_core
    printf1.o(i.__0vsprintf$1) refers to printf1.o(i._sputc) for _sputc
    printf1.o(i._printf_core) refers to uidiv.o(.text) for __aeabi_uidivmod
    printf2.o(i.__0fprintf$2) refers to printf2.o(i._printf_core) for _printf_core
    printf2.o(i.__0fprintf$2) refers to printf.o(i.fputc) for fputc
    printf2.o(i.__0printf$2) refers to printf2.o(i._printf_core) for _printf_core
    printf2.o(i.__0printf$2) refers to printf.o(i.fputc) for fputc
    printf2.o(i.__0printf$2) refers to stdout.o(.data) for __stdout
    printf2.o(i.__0snprintf$2) refers to printf2.o(i._printf_core) for _printf_core
    printf2.o(i.__0snprintf$2) refers to printf2.o(i._snputc) for _snputc
    printf2.o(i.__0sprintf$2) refers to printf2.o(i._printf_core) for _printf_core
    printf2.o(i.__0sprintf$2) refers to printf2.o(i._sputc) for _sputc
    printf2.o(i.__0vfprintf$2) refers to printf2.o(i._printf_core) for _printf_core
    printf2.o(i.__0vfprintf$2) refers to printf.o(i.fputc) for fputc
    printf2.o(i.__0vprintf$2) refers to printf2.o(i._printf_core) for _printf_core
    printf2.o(i.__0vprintf$2) refers to printf.o(i.fputc) for fputc
    printf2.o(i.__0vprintf$2) refers to stdout.o(.data) for __stdout
    printf2.o(i.__0vsnprintf$2) refers to printf2.o(i._printf_core) for _printf_core
    printf2.o(i.__0vsnprintf$2) refers to printf2.o(i._snputc) for _snputc
    printf2.o(i.__0vsprintf$2) refers to printf2.o(i._printf_core) for _printf_core
    printf2.o(i.__0vsprintf$2) refers to printf2.o(i._sputc) for _sputc
    printf3.o(i.__0fprintf$3) refers to printf3.o(i._printf_core) for _printf_core
    printf3.o(i.__0fprintf$3) refers to printf.o(i.fputc) for fputc
    printf3.o(i.__0printf$3) refers to printf3.o(i._printf_core) for _printf_core
    printf3.o(i.__0printf$3) refers to printf.o(i.fputc) for fputc
    printf3.o(i.__0printf$3) refers to stdout.o(.data) for __stdout
    printf3.o(i.__0snprintf$3) refers to printf3.o(i._printf_core) for _printf_core
    printf3.o(i.__0snprintf$3) refers to printf3.o(i._snputc) for _snputc
    printf3.o(i.__0sprintf$3) refers to printf3.o(i._printf_core) for _printf_core
    printf3.o(i.__0sprintf$3) refers to printf3.o(i._sputc) for _sputc
    printf3.o(i.__0vfprintf$3) refers to printf3.o(i._printf_core) for _printf_core
    printf3.o(i.__0vfprintf$3) refers to printf.o(i.fputc) for fputc
    printf3.o(i.__0vprintf$3) refers to printf3.o(i._printf_core) for _printf_core
    printf3.o(i.__0vprintf$3) refers to printf.o(i.fputc) for fputc
    printf3.o(i.__0vprintf$3) refers to stdout.o(.data) for __stdout
    printf3.o(i.__0vsnprintf$3) refers to printf3.o(i._printf_core) for _printf_core
    printf3.o(i.__0vsnprintf$3) refers to printf3.o(i._snputc) for _snputc
    printf3.o(i.__0vsprintf$3) refers to printf3.o(i._printf_core) for _printf_core
    printf3.o(i.__0vsprintf$3) refers to printf3.o(i._sputc) for _sputc
    printf3.o(i._printf_core) refers to uidiv.o(.text) for __aeabi_uidivmod
    printf4.o(i.__0fprintf$4) refers to printf4.o(i._printf_core) for _printf_core
    printf4.o(i.__0fprintf$4) refers to printf.o(i.fputc) for fputc
    printf4.o(i.__0printf$4) refers to printf4.o(i._printf_core) for _printf_core
    printf4.o(i.__0printf$4) refers to printf.o(i.fputc) for fputc
    printf4.o(i.__0printf$4) refers to stdout.o(.data) for __stdout
    printf4.o(i.__0snprintf$4) refers to printf4.o(i._printf_core) for _printf_core
    printf4.o(i.__0snprintf$4) refers to printf4.o(i._snputc) for _snputc
    printf4.o(i.__0sprintf$4) refers to printf4.o(i._printf_core) for _printf_core
    printf4.o(i.__0sprintf$4) refers to printf4.o(i._sputc) for _sputc
    printf4.o(i.__0vfprintf$4) refers to printf4.o(i._printf_core) for _printf_core
    printf4.o(i.__0vfprintf$4) refers to printf.o(i.fputc) for fputc
    printf4.o(i.__0vprintf$4) refers to printf4.o(i._printf_core) for _printf_core
    printf4.o(i.__0vprintf$4) refers to printf.o(i.fputc) for fputc
    printf4.o(i.__0vprintf$4) refers to stdout.o(.data) for __stdout
    printf4.o(i.__0vsnprintf$4) refers to printf4.o(i._printf_core) for _printf_core
    printf4.o(i.__0vsnprintf$4) refers to printf4.o(i._snputc) for _snputc
    printf4.o(i.__0vsprintf$4) refers to printf4.o(i._printf_core) for _printf_core
    printf4.o(i.__0vsprintf$4) refers to printf4.o(i._sputc) for _sputc
    printf4.o(i._printf_core) refers to uldiv.o(.text) for __aeabi_uldivmod
    printf5.o(i.__0fprintf$5) refers to printf5.o(i._printf_core) for _printf_core
    printf5.o(i.__0fprintf$5) refers to printf.o(i.fputc) for fputc
    printf5.o(i.__0printf$5) refers to printf5.o(i._printf_core) for _printf_core
    printf5.o(i.__0printf$5) refers to printf.o(i.fputc) for fputc
    printf5.o(i.__0printf$5) refers to stdout.o(.data) for __stdout
    printf5.o(i.__0snprintf$5) refers to printf5.o(i._printf_core) for _printf_core
    printf5.o(i.__0snprintf$5) refers to printf5.o(i._snputc) for _snputc
    printf5.o(i.__0sprintf$5) refers to printf5.o(i._printf_core) for _printf_core
    printf5.o(i.__0sprintf$5) refers to printf5.o(i._sputc) for _sputc
    printf5.o(i.__0vfprintf$5) refers to printf5.o(i._printf_core) for _printf_core
    printf5.o(i.__0vfprintf$5) refers to printf.o(i.fputc) for fputc
    printf5.o(i.__0vprintf$5) refers to printf5.o(i._printf_core) for _printf_core
    printf5.o(i.__0vprintf$5) refers to printf.o(i.fputc) for fputc
    printf5.o(i.__0vprintf$5) refers to stdout.o(.data) for __stdout
    printf5.o(i.__0vsnprintf$5) refers to printf5.o(i._printf_core) for _printf_core
    printf5.o(i.__0vsnprintf$5) refers to printf5.o(i._snputc) for _snputc
    printf5.o(i.__0vsprintf$5) refers to printf5.o(i._printf_core) for _printf_core
    printf5.o(i.__0vsprintf$5) refers to printf5.o(i._sputc) for _sputc
    printf5.o(i._printf_core) refers to uldiv.o(.text) for __aeabi_uldivmod
    printf6.o(i.__0fprintf$6) refers to printf6.o(i._printf_core) for _printf_core
    printf6.o(i.__0fprintf$6) refers to printf.o(i.fputc) for fputc
    printf6.o(i.__0printf$6) refers to printf6.o(i._printf_core) for _printf_core
    printf6.o(i.__0printf$6) refers to printf.o(i.fputc) for fputc
    printf6.o(i.__0printf$6) refers to stdout.o(.data) for __stdout
    printf6.o(i.__0snprintf$6) refers to printf6.o(i._printf_core) for _printf_core
    printf6.o(i.__0snprintf$6) refers to printf6.o(i._snputc) for _snputc
    printf6.o(i.__0sprintf$6) refers to printf6.o(i._printf_core) for _printf_core
    printf6.o(i.__0sprintf$6) refers to printf6.o(i._sputc) for _sputc
    printf6.o(i.__0vfprintf$6) refers to printf6.o(i._printf_core) for _printf_core
    printf6.o(i.__0vfprintf$6) refers to printf.o(i.fputc) for fputc
    printf6.o(i.__0vprintf$6) refers to printf6.o(i._printf_core) for _printf_core
    printf6.o(i.__0vprintf$6) refers to printf.o(i.fputc) for fputc
    printf6.o(i.__0vprintf$6) refers to stdout.o(.data) for __stdout
    printf6.o(i.__0vsnprintf$6) refers to printf6.o(i._printf_core) for _printf_core
    printf6.o(i.__0vsnprintf$6) refers to printf6.o(i._snputc) for _snputc
    printf6.o(i.__0vsprintf$6) refers to printf6.o(i._printf_core) for _printf_core
    printf6.o(i.__0vsprintf$6) refers to printf6.o(i._sputc) for _sputc
    printf6.o(i._printf_core) refers to printf6.o(i._printf_pre_padding) for _printf_pre_padding
    printf6.o(i._printf_core) refers to printf6.o(i._printf_post_padding) for _printf_post_padding
    printf6.o(i._printf_core) refers to uidiv.o(.text) for __aeabi_uidivmod
    printf7.o(i.__0fprintf$7) refers to printf7.o(i._printf_core) for _printf_core
    printf7.o(i.__0fprintf$7) refers to printf.o(i.fputc) for fputc
    printf7.o(i.__0printf$7) refers to printf7.o(i._printf_core) for _printf_core
    printf7.o(i.__0printf$7) refers to printf.o(i.fputc) for fputc
    printf7.o(i.__0printf$7) refers to stdout.o(.data) for __stdout
    printf7.o(i.__0snprintf$7) refers to printf7.o(i._printf_core) for _printf_core
    printf7.o(i.__0snprintf$7) refers to printf7.o(i._snputc) for _snputc
    printf7.o(i.__0sprintf$7) refers to printf7.o(i._printf_core) for _printf_core
    printf7.o(i.__0sprintf$7) refers to printf7.o(i._sputc) for _sputc
    printf7.o(i.__0vfprintf$7) refers to printf7.o(i._printf_core) for _printf_core
    printf7.o(i.__0vfprintf$7) refers to printf.o(i.fputc) for fputc
    printf7.o(i.__0vprintf$7) refers to printf7.o(i._printf_core) for _printf_core
    printf7.o(i.__0vprintf$7) refers to printf.o(i.fputc) for fputc
    printf7.o(i.__0vprintf$7) refers to stdout.o(.data) for __stdout
    printf7.o(i.__0vsnprintf$7) refers to printf7.o(i._printf_core) for _printf_core
    printf7.o(i.__0vsnprintf$7) refers to printf7.o(i._snputc) for _snputc
    printf7.o(i.__0vsprintf$7) refers to printf7.o(i._printf_core) for _printf_core
    printf7.o(i.__0vsprintf$7) refers to printf7.o(i._sputc) for _sputc
    printf7.o(i._printf_core) refers to printf7.o(i._printf_pre_padding) for _printf_pre_padding
    printf7.o(i._printf_core) refers to printf7.o(i._printf_post_padding) for _printf_post_padding
    printf7.o(i._printf_core) refers to uldiv.o(.text) for __aeabi_uldivmod
    printf8.o(i.__0fprintf$8) refers to printf8.o(i._printf_core) for _printf_core
    printf8.o(i.__0fprintf$8) refers to printf.o(i.fputc) for fputc
    printf8.o(i.__0printf$8) refers to printf8.o(i._printf_core) for _printf_core
    printf8.o(i.__0printf$8) refers to printf.o(i.fputc) for fputc
    printf8.o(i.__0printf$8) refers to stdout.o(.data) for __stdout
    printf8.o(i.__0snprintf$8) refers to printf8.o(i._printf_core) for _printf_core
    printf8.o(i.__0snprintf$8) refers to printf8.o(i._snputc) for _snputc
    printf8.o(i.__0sprintf$8) refers to printf8.o(i._printf_core) for _printf_core
    printf8.o(i.__0sprintf$8) refers to printf8.o(i._sputc) for _sputc
    printf8.o(i.__0vfprintf$8) refers to printf8.o(i._printf_core) for _printf_core
    printf8.o(i.__0vfprintf$8) refers to printf.o(i.fputc) for fputc
    printf8.o(i.__0vprintf$8) refers to printf8.o(i._printf_core) for _printf_core
    printf8.o(i.__0vprintf$8) refers to printf.o(i.fputc) for fputc
    printf8.o(i.__0vprintf$8) refers to stdout.o(.data) for __stdout
    printf8.o(i.__0vsnprintf$8) refers to printf8.o(i._printf_core) for _printf_core
    printf8.o(i.__0vsnprintf$8) refers to printf8.o(i._snputc) for _snputc
    printf8.o(i.__0vsprintf$8) refers to printf8.o(i._printf_core) for _printf_core
    printf8.o(i.__0vsprintf$8) refers to printf8.o(i._sputc) for _sputc
    printf8.o(i._printf_core) refers to printf8.o(i._printf_pre_padding) for _printf_pre_padding
    printf8.o(i._printf_core) refers to printf8.o(i._printf_post_padding) for _printf_post_padding
    printf8.o(i._printf_core) refers to uldiv.o(.text) for __aeabi_uldivmod
    printfa.o(i.__0fprintf) refers (Special) to iusefp.o(.text) for __I$use$fp
    printfa.o(i.__0fprintf) refers to printfa.o(i._printf_core) for _printf_core
    printfa.o(i.__0fprintf) refers to printf.o(i.fputc) for fputc
    printfa.o(i.__0printf) refers (Special) to iusefp.o(.text) for __I$use$fp
    printfa.o(i.__0printf) refers to printfa.o(i._printf_core) for _printf_core
    printfa.o(i.__0printf) refers to printf.o(i.fputc) for fputc
    printfa.o(i.__0printf) refers to stdout.o(.data) for __stdout
    printfa.o(i.__0snprintf) refers (Special) to iusefp.o(.text) for __I$use$fp
    printfa.o(i.__0snprintf) refers to printfa.o(i._printf_core) for _printf_core
    printfa.o(i.__0snprintf) refers to printfa.o(i._snputc) for _snputc
    printfa.o(i.__0sprintf) refers (Special) to iusefp.o(.text) for __I$use$fp
    printfa.o(i.__0sprintf) refers to printfa.o(i._printf_core) for _printf_core
    printfa.o(i.__0sprintf) refers to printfa.o(i._sputc) for _sputc
    printfa.o(i.__0vfprintf) refers (Special) to iusefp.o(.text) for __I$use$fp
    printfa.o(i.__0vfprintf) refers to printfa.o(i._printf_core) for _printf_core
    printfa.o(i.__0vfprintf) refers to printf.o(i.fputc) for fputc
    printfa.o(i.__0vprintf) refers (Special) to iusefp.o(.text) for __I$use$fp
    printfa.o(i.__0vprintf) refers to printfa.o(i._printf_core) for _printf_core
    printfa.o(i.__0vprintf) refers to printf.o(i.fputc) for fputc
    printfa.o(i.__0vprintf) refers to stdout.o(.data) for __stdout
    printfa.o(i.__0vsnprintf) refers (Special) to iusefp.o(.text) for __I$use$fp
    printfa.o(i.__0vsnprintf) refers to printfa.o(i._printf_core) for _printf_core
    printfa.o(i.__0vsnprintf) refers to printfa.o(i._snputc) for _snputc
    printfa.o(i.__0vsprintf) refers (Special) to iusefp.o(.text) for __I$use$fp
    printfa.o(i.__0vsprintf) refers to printfa.o(i._printf_core) for _printf_core
    printfa.o(i.__0vsprintf) refers to printfa.o(i._sputc) for _sputc
    printfa.o(i._fp_digits) refers (Special) to iusefp.o(.text) for __I$use$fp
    printfa.o(i._fp_digits) refers to dmul.o(.text) for __aeabi_dmul
    printfa.o(i._fp_digits) refers to ddiv.o(.text) for __aeabi_ddiv
    printfa.o(i._fp_digits) refers to cdrcmple.o(.text) for __aeabi_cdrcmple
    printfa.o(i._fp_digits) refers to dadd.o(.text) for __aeabi_dadd
    printfa.o(i._fp_digits) refers to dfixul.o(.text) for __aeabi_d2ulz
    printfa.o(i._fp_digits) refers to uldiv.o(.text) for __aeabi_uldivmod
    printfa.o(i._printf_core) refers (Special) to iusefp.o(.text) for __I$use$fp
    printfa.o(i._printf_core) refers to printfa.o(i._printf_pre_padding) for _printf_pre_padding
    printfa.o(i._printf_core) refers to uldiv.o(.text) for __aeabi_uldivmod
    printfa.o(i._printf_core) refers to printfa.o(i._printf_post_padding) for _printf_post_padding
    printfa.o(i._printf_core) refers to printfa.o(i._fp_digits) for _fp_digits
    printfa.o(i._printf_core) refers to uidiv.o(.text) for __aeabi_uidivmod
    printfa.o(i._printf_post_padding) refers (Special) to iusefp.o(.text) for __I$use$fp
    printfa.o(i._printf_pre_padding) refers (Special) to iusefp.o(.text) for __I$use$fp
    printfa.o(i._snputc) refers (Special) to iusefp.o(.text) for __I$use$fp
    printfa.o(i._sputc) refers (Special) to iusefp.o(.text) for __I$use$fp
    atoi.o(.text) refers to errno.o(i.__aeabi_errno_addr) for __aeabi_errno_addr
    atoi.o(.text) refers to strtol.o(.text) for strtol
    entry2.o(.ARM.Collect$$$$00000001) refers to entry2.o(.ARM.Collect$$$$00002712) for __lit__00000000
    entry2.o(.ARM.Collect$$$$00002712) refers to startup_m051series.o(STACK) for __initial_sp
    entry2.o(__vectab_stack_and_reset_area) refers to startup_m051series.o(STACK) for __initial_sp
    entry2.o(__vectab_stack_and_reset_area) refers to entry.o(.ARM.Collect$$$$00000000) for __main
    entry5.o(.ARM.Collect$$$$00000004) refers to init.o(.text) for __scatterload
    entry9a.o(.ARM.Collect$$$$0000000B) refers to startup.o(i.main) for main
    entry9b.o(.ARM.Collect$$$$0000000C) refers to startup.o(i.main) for main
    uldiv.o(.text) refers to llushr.o(.text) for __aeabi_llsr
    uldiv.o(.text) refers to llshl.o(.text) for __aeabi_llsl
    errno.o(i.__aeabi_errno_addr) refers to errno.o(.data) for .data
    errno.o(i.__read_errno) refers to errno.o(.data) for .data
    errno.o(i.__set_errno) refers to errno.o(.data) for .data
    strtol.o(.text) refers to ctype_o.o(.text) for __rt_ctype_table
    strtol.o(.text) refers to _strtoul.o(.text) for _strtoul
    strtol.o(.text) refers to errno.o(i.__aeabi_errno_addr) for __aeabi_errno_addr
    dadd.o(.text) refers to llshl.o(.text) for __aeabi_llsl
    dadd.o(.text) refers to llsshr.o(.text) for __aeabi_lasr
    dadd.o(.text) refers to depilogue.o(.text) for _double_epilogue
    dmul.o(.text) refers to depilogue.o(.text) for _double_epilogue
    ddiv.o(.text) refers to depilogue.o(.text) for _double_round
    dfixul.o(.text) refers to llushr.o(.text) for __aeabi_llsr
    dfixul.o(.text) refers to llshl.o(.text) for __aeabi_llsl
    init.o(.text) refers to entry5.o(.ARM.Collect$$$$00000004) for __main_after_scatterload
    ctype_o.o(.text) refers to ctype_o.o(.constdata) for .constdata
    ctype_o.o(.constdata) refers to ctype_o.o(.constdata) for __ctype_table
    isalnum_o.o(.text) refers to ctype_o.o(.text) for __rt_ctype_table
    isalpha_o.o(.text) refers to ctype_o.o(.text) for __rt_ctype_table
    isblank_o.o(.text) refers to ctype_o.o(.constdata) for __ctype_table
    iscntrl_o.o(.text) refers to ctype_o.o(.text) for __rt_ctype_table
    isdigit_o.o(.text) refers to ctype_o.o(.text) for __rt_ctype_table
    isgraph_o.o(.text) refers to ctype_o.o(.text) for __rt_ctype_table
    islower_o.o(.text) refers to ctype_o.o(.text) for __rt_ctype_table
    isprint_o.o(.text) refers to ctype_o.o(.text) for __rt_ctype_table
    ispunct_o.o(.text) refers to ctype_o.o(.text) for __rt_ctype_table
    isspace_o.o(.text) refers to ctype_o.o(.text) for __rt_ctype_table
    isupper_o.o(.text) refers to ctype_o.o(.text) for __rt_ctype_table
    isxdigit_o.o(.text) refers to ctype_o.o(.text) for __rt_ctype_table
    _strtoul.o(.text) refers to _chval.o(.text) for _chval
    _strtoul.o(.text) refers to errno.o(i.__aeabi_errno_addr) for __aeabi_errno_addr
    depilogue.o(.text) refers to depilogue.o(i.__ARM_clz) for __ARM_clz
    depilogue.o(.text) refers to llshl.o(.text) for __aeabi_llsl
    depilogue.o(.text) refers to llushr.o(.text) for __aeabi_llsr


==============================================================================

Removing Unused input sections from the image.

    Removing startup.o(.rev16_text), (4 bytes).
    Removing startup.o(.revsh_text), (4 bytes).
    Removing startup.o(i.assert_failed), (112 bytes).
    Removing board.o(.rev16_text), (4 bytes).
    Removing board.o(.revsh_text), (4 bytes).
    Removing board.o(i.NVIC_Configuration), (2 bytes).
    Removing board.o(i.delay), (18 bytes).
    Removing board.o(i.rt_hw_system_init), (84 bytes).
    Removing led.o(.rev16_text), (4 bytes).
    Removing led.o(.revsh_text), (4 bytes).
    Removing led.o(i.rt_hw_led_off), (12 bytes).
    Removing led.o(i.rt_hw_led_on), (12 bytes).
    Removing usart.o(.rev16_text), (4 bytes).
    Removing usart.o(.revsh_text), (4 bytes).
    Removing usart.o(i.m05x_configure), (100 bytes).
    Removing usart.o(i.m05x_control), (44 bytes).
    Removing usart.o(i.m05x_getc), (22 bytes).
    Removing usart.o(i.m05x_putc), (44 bytes).
    Removing usart.o(i.rt_hw_usart_init), (72 bytes).
    Removing usart.o(.constdata), (28 bytes).
    Removing printf.o(.rev16_text), (4 bytes).
    Removing printf.o(.revsh_text), (4 bytes).
    Removing system_m051series.o(.rev16_text), (4 bytes).
    Removing system_m051series.o(.revsh_text), (4 bytes).
    Removing acmp.o(.rev16_text), (4 bytes).
    Removing acmp.o(.revsh_text), (4 bytes).
    Removing acmp.o(i.ACMP_Close), (18 bytes).
    Removing acmp.o(i.ACMP_Open), (30 bytes).
    Removing adc.o(.rev16_text), (4 bytes).
    Removing adc.o(.revsh_text), (4 bytes).
    Removing adc.o(i.ADC_Close), (36 bytes).
    Removing adc.o(i.ADC_DisableHWTrigger), (20 bytes).
    Removing adc.o(i.ADC_DisableInt), (68 bytes).
    Removing adc.o(i.ADC_EnableHWTrigger), (84 bytes).
    Removing adc.o(i.ADC_EnableInt), (68 bytes).
    Removing adc.o(i.ADC_Open), (44 bytes).
    Removing clk.o(.rev16_text), (4 bytes).
    Removing clk.o(.revsh_text), (4 bytes).
    Removing clk.o(i.CLK_DisableCKO), (16 bytes).
    Removing clk.o(i.CLK_DisableModuleClock), (36 bytes).
    Removing clk.o(i.CLK_DisablePLL), (20 bytes).
    Removing clk.o(i.CLK_DisableXtalRC), (16 bytes).
    Removing clk.o(i.CLK_EnableCKO), (48 bytes).
    Removing clk.o(i.CLK_GetCPUFreq), (16 bytes).
    Removing clk.o(i.CLK_GetHCLKFreq), (16 bytes).
    Removing clk.o(i.CLK_GetHXTFreq), (28 bytes).
    Removing clk.o(i.CLK_Idle), (36 bytes).
    Removing clk.o(i.CLK_PowerDown), (40 bytes).
    Removing clk.o(i.CLK_SetSysTickClockSrc), (20 bytes).
    Removing ebi.o(.rev16_text), (4 bytes).
    Removing ebi.o(.revsh_text), (4 bytes).
    Removing ebi.o(i.EBI_Close), (20 bytes).
    Removing ebi.o(i.EBI_Open), (272 bytes).
    Removing ebi.o(i.EBI_SetBusTiming), (32 bytes).
    Removing fmc.o(.rev16_text), (4 bytes).
    Removing fmc.o(.revsh_text), (4 bytes).
    Removing fmc.o(i.FMC_Close), (20 bytes).
    Removing fmc.o(i.FMC_DisableAPUpdate), (20 bytes).
    Removing fmc.o(i.FMC_DisableConfigUpdate), (20 bytes).
    Removing fmc.o(i.FMC_DisableLDUpdate), (20 bytes).
    Removing fmc.o(i.FMC_EnableAPUpdate), (20 bytes).
    Removing fmc.o(i.FMC_EnableConfigUpdate), (20 bytes).
    Removing fmc.o(i.FMC_EnableLDUpdate), (20 bytes).
    Removing fmc.o(i.FMC_GetBootSource), (24 bytes).
    Removing fmc.o(i.FMC_Open), (20 bytes).
    Removing fmc.o(i.FMC_Read), (40 bytes).
    Removing fmc.o(i.FMC_ReadConfig), (36 bytes).
    Removing fmc.o(i.FMC_ReadDataFlashBaseAddr), (12 bytes).
    Removing fmc.o(i.FMC_SetBootSource), (36 bytes).
    Removing fmc.o(i.FMC_WriteConfig), (100 bytes).
    Removing gpio.o(.rev16_text), (4 bytes).
    Removing gpio.o(.revsh_text), (4 bytes).
    Removing gpio.o(i.GPIO_DisableInt), (28 bytes).
    Removing gpio.o(i.GPIO_EnableInt), (26 bytes).
    Removing i2c.o(.rev16_text), (4 bytes).
    Removing i2c.o(.revsh_text), (4 bytes).
    Removing i2c.o(i.I2C_ClearTimeoutFlag), (10 bytes).
    Removing i2c.o(i.I2C_Close), (44 bytes).
    Removing i2c.o(i.I2C_DisableInt), (10 bytes).
    Removing i2c.o(i.I2C_DisableTimeout), (10 bytes).
    Removing i2c.o(i.I2C_DisableWakeup), (10 bytes).
    Removing i2c.o(i.I2C_EnableInt), (10 bytes).
    Removing i2c.o(i.I2C_EnableTimeout), (32 bytes).
    Removing i2c.o(i.I2C_EnableWakeup), (10 bytes).
    Removing i2c.o(i.I2C_GetBusClockFreq), (24 bytes).
    Removing i2c.o(i.I2C_GetData), (8 bytes).
    Removing i2c.o(i.I2C_GetIntFlag), (12 bytes).
    Removing i2c.o(i.I2C_GetStatus), (6 bytes).
    Removing i2c.o(i.I2C_Open), (64 bytes).
    Removing i2c.o(i.I2C_SetBusClockFreq), (56 bytes).
    Removing i2c.o(i.I2C_SetData), (4 bytes).
    Removing i2c.o(i.I2C_SetSlaveAddr), (58 bytes).
    Removing i2c.o(i.I2C_SetSlaveAddrMask), (48 bytes).
    Removing i2c.o(i.I2C_Trigger), (50 bytes).
    Removing pwm.o(.rev16_text), (4 bytes).
    Removing pwm.o(.revsh_text), (4 bytes).
    Removing pwm.o(i.PWM_ClearADCTriggerFlag), (12 bytes).
    Removing pwm.o(i.PWM_ClearCaptureIntFlag), (72 bytes).
    Removing pwm.o(i.PWM_ClearDutyIntFlag), (10 bytes).
    Removing pwm.o(i.PWM_ClearPeriodIntFlag), (8 bytes).
    Removing pwm.o(i.PWM_ConfigCaptureChannel), (356 bytes).
    Removing pwm.o(i.PWM_ConfigOutputChannel), (396 bytes).
    Removing pwm.o(i.PWM_DisableADCTrigger), (18 bytes).
    Removing pwm.o(i.PWM_DisableCapture), (64 bytes).
    Removing pwm.o(i.PWM_DisableCaptureInt), (40 bytes).
    Removing pwm.o(i.PWM_DisableDeadZone), (14 bytes).
    Removing pwm.o(i.PWM_DisableDutyInt), (14 bytes).
    Removing pwm.o(i.PWM_DisableOutput), (8 bytes).
    Removing pwm.o(i.PWM_DisablePeriodInt), (12 bytes).
    Removing pwm.o(i.PWM_EnableADCTrigger), (26 bytes).
    Removing pwm.o(i.PWM_EnableCapture), (64 bytes).
    Removing pwm.o(i.PWM_EnableCaptureInt), (36 bytes).
    Removing pwm.o(i.PWM_EnableDeadZone), (40 bytes).
    Removing pwm.o(i.PWM_EnableDutyInt), (34 bytes).
    Removing pwm.o(i.PWM_EnableOutput), (8 bytes).
    Removing pwm.o(i.PWM_EnablePeriodInt), (32 bytes).
    Removing pwm.o(i.PWM_ForceStop), (42 bytes).
    Removing pwm.o(i.PWM_GetADCTriggerFlag), (24 bytes).
    Removing pwm.o(i.PWM_GetCaptureIntFlag), (48 bytes).
    Removing pwm.o(i.PWM_GetDutyIntFlag), (24 bytes).
    Removing pwm.o(i.PWM_GetPeriodIntFlag), (22 bytes).
    Removing pwm.o(i.PWM_Start), (42 bytes).
    Removing pwm.o(i.PWM_Stop), (38 bytes).
    Removing pwm.o(.constdata), (168 bytes).
    Removing spi.o(.rev16_text), (4 bytes).
    Removing spi.o(.revsh_text), (4 bytes).
    Removing spi.o(i.CLK_GetPLLClockFreq), (128 bytes).
    Removing spi.o(i.SPI_ClearIntFlag), (100 bytes).
    Removing spi.o(i.SPI_ClearRxFIFO), (10 bytes).
    Removing spi.o(i.SPI_ClearTxFIFO), (10 bytes).
    Removing spi.o(i.SPI_Close), (108 bytes).
    Removing spi.o(i.SPI_DisableAutoSS), (10 bytes).
    Removing spi.o(i.SPI_DisableFIFO), (12 bytes).
    Removing spi.o(i.SPI_DisableInt), (140 bytes).
    Removing spi.o(i.SPI_EnableAutoSS), (22 bytes).
    Removing spi.o(i.SPI_EnableFIFO), (32 bytes).
    Removing spi.o(i.SPI_EnableInt), (140 bytes).
    Removing spi.o(i.SPI_GetBusClock), (196 bytes).
    Removing spi.o(i.SPI_GetIntFlag), (182 bytes).
    Removing spi.o(i.SPI_GetStatus), (162 bytes).
    Removing spi.o(i.SPI_Open), (500 bytes).
    Removing spi.o(i.SPI_SetBusClock), (396 bytes).
    Removing sys.o(.rev16_text), (4 bytes).
    Removing sys.o(.revsh_text), (4 bytes).
    Removing sys.o(i.SYS_ClearResetSrc), (16 bytes).
    Removing sys.o(i.SYS_DisableBOD), (18 bytes).
    Removing sys.o(i.SYS_EnableBOD), (50 bytes).
    Removing sys.o(i.SYS_GetBODStatus), (14 bytes).
    Removing sys.o(i.SYS_GetResetSrc), (8 bytes).
    Removing sys.o(i.SYS_IsRegLocked), (20 bytes).
    Removing sys.o(i.SYS_ReadPDID), (8 bytes).
    Removing sys.o(i.SYS_ResetCPU), (18 bytes).
    Removing sys.o(i.SYS_ResetChip), (18 bytes).
    Removing timer.o(.rev16_text), (4 bytes).
    Removing timer.o(.revsh_text), (4 bytes).
    Removing timer.o(i.TIMER_Close), (8 bytes).
    Removing timer.o(i.TIMER_Delay), (272 bytes).
    Removing timer.o(i.TIMER_DisableCapture), (10 bytes).
    Removing timer.o(i.TIMER_DisableEventCounter), (12 bytes).
    Removing timer.o(i.TIMER_EnableCapture), (20 bytes).
    Removing timer.o(i.TIMER_EnableEventCounter), (22 bytes).
    Removing timer.o(i.TIMER_GetModuleClock), (132 bytes).
    Removing timer.o(i.TIMER_Open), (118 bytes).
    Removing timer.o(.constdata), (32 bytes).
    Removing uart.o(.rev16_text), (4 bytes).
    Removing uart.o(.revsh_text), (4 bytes).
    Removing uart.o(i.NVIC_DisableIRQ), (20 bytes).
    Removing uart.o(i.NVIC_EnableIRQ), (20 bytes).
    Removing uart.o(i.UART_ClearIntFlag), (88 bytes).
    Removing uart.o(i.UART_Close), (6 bytes).
    Removing uart.o(i.UART_DisableFlowCtrl), (12 bytes).
    Removing uart.o(i.UART_DisableInt), (40 bytes).
    Removing uart.o(i.UART_EnableFlowCtrl), (30 bytes).
    Removing uart.o(i.UART_EnableInt), (40 bytes).
    Removing uart.o(i.UART_Read), (54 bytes).
    Removing uart.o(i.UART_SelectIrDAMode), (140 bytes).
    Removing uart.o(i.UART_SelectLINMode), (26 bytes).
    Removing uart.o(i.UART_SelectRS485Mode), (32 bytes).
    Removing uart.o(i.UART_SetLine_Config), (148 bytes).
    Removing uart.o(i.UART_SetTimeoutCnt), (22 bytes).
    Removing uart.o(i.UART_Write), (54 bytes).
    Removing wdt.o(.rev16_text), (4 bytes).
    Removing wdt.o(.revsh_text), (4 bytes).
    Removing wdt.o(i.WDT_Open), (28 bytes).
    Removing wwdt.o(.rev16_text), (4 bytes).
    Removing wwdt.o(.revsh_text), (4 bytes).
    Removing wwdt.o(i.WWDT_Open), (32 bytes).
    Removing startup_m051series.o(HEAP), (0 bytes).
    Removing clock.o(i.rt_system_tick_init), (2 bytes).
    Removing clock.o(i.rt_tick_from_millisecond), (24 bytes).
    Removing clock.o(i.rt_tick_set), (28 bytes).
    Removing device.o(i.rt_device_control), (30 bytes).
    Removing device.o(i.rt_device_init), (116 bytes).
    Removing device.o(i.rt_device_init_all), (4 bytes).
    Removing device.o(i.rt_device_register), (54 bytes).
    Removing device.o(i.rt_device_set_tx_complete), (8 bytes).
    Removing device.o(i.rt_device_unregister), (14 bytes).
    Removing idle.o(i.rt_thread_idle_gethandler), (8 bytes).
    Removing ipc.o(i.rt_ipc_list_resume_all), (50 bytes).
    Removing ipc.o(i.rt_sem_control), (50 bytes).
    Removing ipc.o(i.rt_sem_create), (40 bytes).
    Removing ipc.o(i.rt_sem_delete), (22 bytes).
    Removing ipc.o(i.rt_sem_detach), (22 bytes).
    Removing ipc.o(i.rt_sem_trytake), (14 bytes).
    Removing kservice.o(i._rt_errno), (40 bytes).
    Removing kservice.o(i.rt_free_align), (18 bytes).
    Removing kservice.o(i.rt_get_errno), (40 bytes).
    Removing kservice.o(i.rt_kputs), (80 bytes).
    Removing kservice.o(i.rt_malloc_align), (66 bytes).
    Removing kservice.o(i.rt_memcmp), (38 bytes).
    Removing kservice.o(i.rt_memcpy), (94 bytes).
    Removing kservice.o(i.rt_snprintf), (40 bytes).
    Removing kservice.o(i.rt_sprintf), (36 bytes).
    Removing kservice.o(i.rt_strcasecmp), (48 bytes).
    Removing kservice.o(i.rt_strcmp), (30 bytes).
    Removing kservice.o(i.rt_strdup), (40 bytes).
    Removing kservice.o(i.rt_strnlen), (26 bytes).
    Removing kservice.o(i.rt_strstr), (62 bytes).
    Removing kservice.o(i.rt_vsprintf), (22 bytes).
    Removing mem.o(i.rt_calloc), (40 bytes).
    Removing mem.o(i.rt_memory_info), (44 bytes).
    Removing mem.o(i.rt_realloc), (292 bytes).
    Removing object.o(i.rt_object_find), (92 bytes).
    Removing object.o(i.rt_object_get_information), (16 bytes).
    Removing object.o(i.rt_system_object_init), (2 bytes).
    Removing scheduler.o(i.rt_critical_level), (12 bytes).
    Removing thread.o(i.rt_thread_control), (108 bytes).
    Removing thread.o(i.rt_thread_delete), (64 bytes).
    Removing thread.o(i.rt_thread_detach), (76 bytes).
    Removing thread.o(i.rt_thread_find), (84 bytes).
    Removing src_timer.o(i.rt_timer_create), (46 bytes).
    Removing src_timer.o(i.rt_timer_delete), (32 bytes).
    Removing src_timer.o(i.rt_timer_next_timeout_tick), (16 bytes).
    Removing backtrace.o(i.rt_hw_backtrace), (2 bytes).
    Removing div0.o(i.__div0), (4 bytes).
    Removing showmem.o(i.rt_hw_show_memory), (92 bytes).
    Removing serial.o(i._serial_dma_rx), (216 bytes).
    Removing serial.o(i._serial_dma_tx), (92 bytes).
    Removing serial.o(i._serial_int_rx), (96 bytes).
    Removing serial.o(i.rt_dma_recv_update_get_index), (56 bytes).
    Removing serial.o(i.rt_hw_serial_register), (84 bytes).
    Removing serial.o(i.rt_serial_close), (222 bytes).
    Removing serial.o(i.rt_serial_control), (124 bytes).
    Removing serial.o(i.rt_serial_init), (40 bytes).
    Removing serial.o(i.rt_serial_open), (434 bytes).
    Removing serial.o(i.rt_serial_read), (132 bytes).
    Removing serial.o(i.rt_serial_write), (192 bytes).
    Removing completion.o(i.rt_completion_init), (30 bytes).
    Removing completion.o(i.rt_completion_wait), (126 bytes).
    Removing dataqueue.o(i.rt_data_queue_init), (60 bytes).
    Removing dataqueue.o(i.rt_data_queue_push), (226 bytes).
    Removing dataqueue.o(i.rt_data_queue_reset), (106 bytes).
    Removing dataqueue.o(i.rt_list_init), (6 bytes).
    Removing pipe.o(i._rt_pipe_resume_reader), (60 bytes).
    Removing pipe.o(i._rt_pipe_resume_writer), (36 bytes).
    Removing pipe.o(i.rt_list_init), (6 bytes).
    Removing pipe.o(i.rt_list_insert_before), (14 bytes).
    Removing pipe.o(i.rt_list_isempty), (16 bytes).
    Removing pipe.o(i.rt_pipe_control), (36 bytes).
    Removing pipe.o(i.rt_pipe_create), (76 bytes).
    Removing pipe.o(i.rt_pipe_destroy), (32 bytes).
    Removing pipe.o(i.rt_pipe_detach), (12 bytes).
    Removing pipe.o(i.rt_pipe_init), (96 bytes).
    Removing pipe.o(i.rt_pipe_read), (150 bytes).
    Removing pipe.o(i.rt_pipe_write), (186 bytes).
    Removing pipe.o(i.rt_ringbuffer_data_len), (112 bytes).
    Removing portal.o(i._portal_close), (22 bytes).
    Removing portal.o(i._portal_init), (34 bytes).
    Removing portal.o(i._portal_open), (72 bytes).
    Removing portal.o(i._portal_read), (24 bytes).
    Removing portal.o(i._portal_rx_indicate), (32 bytes).
    Removing portal.o(i._portal_tx_complete), (32 bytes).
    Removing portal.o(i._portal_write), (24 bytes).
    Removing portal.o(i.rt_portal_create), (40 bytes).
    Removing portal.o(i.rt_portal_destroy), (26 bytes).
    Removing portal.o(i.rt_portal_detach), (12 bytes).
    Removing portal.o(i.rt_portal_init), (160 bytes).
    Removing ringbuffer.o(i.rt_ringbuffer_data_len), (80 bytes).
    Removing ringbuffer.o(i.rt_ringbuffer_get), (196 bytes).
    Removing ringbuffer.o(i.rt_ringbuffer_getchar), (100 bytes).
    Removing ringbuffer.o(i.rt_ringbuffer_init), (60 bytes).
    Removing ringbuffer.o(i.rt_ringbuffer_put), (204 bytes).
    Removing ringbuffer.o(i.rt_ringbuffer_put_force), (264 bytes).
    Removing ringbuffer.o(i.rt_ringbuffer_putchar), (104 bytes).
    Removing ringbuffer.o(i.rt_ringbuffer_putchar_force), (160 bytes).
    Removing ringbuffer.o(i.rt_ringbuffer_status), (42 bytes).
    Removing workqueue.o(i._workqueue_thread_entry), (90 bytes).
    Removing workqueue.o(i.rt_list_insert_after), (14 bytes).
    Removing workqueue.o(i.rt_list_remove), (18 bytes).
    Removing workqueue.o(i.rt_workqueue_cancel_all_work), (34 bytes).
    Removing workqueue.o(i.rt_workqueue_cancel_work), (46 bytes).
    Removing workqueue.o(i.rt_workqueue_create), (84 bytes).
    Removing workqueue.o(i.rt_workqueue_critical_work), (78 bytes).
    Removing workqueue.o(i.rt_workqueue_destroy), (20 bytes).
    Removing workqueue.o(i.rt_workqueue_dowork), (78 bytes).
    Removing shell.o(i.finsh_get_device), (16 bytes).
    Removing shell.o(i.finsh_get_echo), (20 bytes).
    Removing shell.o(i.finsh_set_device), (200 bytes).
    Removing shell.o(i.finsh_set_echo), (16 bytes).
    Removing finsh_init.o(i.finsh_reset), (24 bytes).
    Removing finsh_var.o(i.finsh_sysvar_append), (68 bytes).
    Removing finsh_var.o(i.finsh_var_delete), (72 bytes).
    Removing finsh_vm.o(i.finsh_syscall_append), (64 bytes).
    Removing finsh_token.o(i.finsh_token_get_token), (18 bytes).
    Removing components.o(i.rt_components_init), (28 bytes).
    Removing dadd.o(.text), (356 bytes).
    Removing dmul.o(.text), (208 bytes).
    Removing ddiv.o(.text), (240 bytes).
    Removing dfixul.o(.text), (64 bytes).
    Removing cdrcmple.o(.text), (40 bytes).
    Removing depilogue.o(.text), (190 bytes).
    Removing depilogue.o(i.__ARM_clz), (46 bytes).

312 unused section(s) (total 17112 bytes) removed from the image.

==============================================================================

Image Symbol Table

    Local Symbols

    Symbol Name                              Value     Ov Type        Size  Object(Section)

    RESET                                    0x00000000   Section      192  startup_m051series.o(RESET)
    ../clib/../cmprslib/zerorunl2.c          0x00000000   Number         0  __dczerorl2.o ABSOLUTE
    ../clib/microlib/ctype/ctype.c           0x00000000   Number         0  iscntrl_o.o ABSOLUTE
    ../clib/microlib/ctype/ctype.c           0x00000000   Number         0  isdigit_o.o ABSOLUTE
    ../clib/microlib/ctype/ctype.c           0x00000000   Number         0  ctype_o.o ABSOLUTE
    ../clib/microlib/ctype/ctype.c           0x00000000   Number         0  isgraph_o.o ABSOLUTE
    ../clib/microlib/ctype/ctype.c           0x00000000   Number         0  islower_o.o ABSOLUTE
    ../clib/microlib/ctype/ctype.c           0x00000000   Number         0  isprint_o.o ABSOLUTE
    ../clib/microlib/ctype/ctype.c           0x00000000   Number         0  isspace_o.o ABSOLUTE
    ../clib/microlib/ctype/ctype.c           0x00000000   Number         0  isblank_o.o ABSOLUTE
    ../clib/microlib/ctype/ctype.c           0x00000000   Number         0  isupper_o.o ABSOLUTE
    ../clib/microlib/ctype/ctype.c           0x00000000   Number         0  isxdigit_o.o ABSOLUTE
    ../clib/microlib/ctype/ctype.c           0x00000000   Number         0  ispunct_o.o ABSOLUTE
    ../clib/microlib/ctype/ctype.c           0x00000000   Number         0  isalpha_o.o ABSOLUTE
    ../clib/microlib/ctype/ctype.c           0x00000000   Number         0  isalnum_o.o ABSOLUTE
    ../clib/microlib/division.c              0x00000000   Number         0  idiv.o ABSOLUTE
    ../clib/microlib/division.c              0x00000000   Number         0  uidiv.o ABSOLUTE
    ../clib/microlib/division.c              0x00000000   Number         0  uldiv.o ABSOLUTE
    ../clib/microlib/errno.c                 0x00000000   Number         0  errno.o ABSOLUTE
    ../clib/microlib/init/entry.s            0x00000000   Number         0  entry5.o ABSOLUTE
    ../clib/microlib/init/entry.s            0x00000000   Number         0  entry7a.o ABSOLUTE
    ../clib/microlib/init/entry.s            0x00000000   Number         0  entry7b.o ABSOLUTE
    ../clib/microlib/init/entry.s            0x00000000   Number         0  entry8a.o ABSOLUTE
    ../clib/microlib/init/entry.s            0x00000000   Number         0  entry8b.o ABSOLUTE
    ../clib/microlib/init/entry.s            0x00000000   Number         0  entry9b.o ABSOLUTE
    ../clib/microlib/init/entry.s            0x00000000   Number         0  entry10a.o ABSOLUTE
    ../clib/microlib/init/entry.s            0x00000000   Number         0  entry10b.o ABSOLUTE
    ../clib/microlib/init/entry.s            0x00000000   Number         0  entry11a.o ABSOLUTE
    ../clib/microlib/init/entry.s            0x00000000   Number         0  entry.o ABSOLUTE
    ../clib/microlib/init/entry.s            0x00000000   Number         0  entry11b.o ABSOLUTE
    ../clib/microlib/init/entry.s            0x00000000   Number         0  entry9a.o ABSOLUTE
    ../clib/microlib/init/entry.s            0x00000000   Number         0  entry2.o ABSOLUTE
    ../clib/microlib/longlong.c              0x00000000   Number         0  llsshr.o ABSOLUTE
    ../clib/microlib/longlong.c              0x00000000   Number         0  llshl.o ABSOLUTE
    ../clib/microlib/longlong.c              0x00000000   Number         0  llushr.o ABSOLUTE
    ../clib/microlib/printf/printf.c         0x00000000   Number         0  printf6.o ABSOLUTE
    ../clib/microlib/printf/printf.c         0x00000000   Number         0  printfa.o ABSOLUTE
    ../clib/microlib/printf/printf.c         0x00000000   Number         0  printf8.o ABSOLUTE
    ../clib/microlib/printf/printf.c         0x00000000   Number         0  printf7.o ABSOLUTE
    ../clib/microlib/printf/printf.c         0x00000000   Number         0  printf5.o ABSOLUTE
    ../clib/microlib/printf/printf.c         0x00000000   Number         0  printf4.o ABSOLUTE
    ../clib/microlib/printf/printf.c         0x00000000   Number         0  printf3.o ABSOLUTE
    ../clib/microlib/printf/printf.c         0x00000000   Number         0  printf2.o ABSOLUTE
    ../clib/microlib/printf/printf.c         0x00000000   Number         0  printf1.o ABSOLUTE
    ../clib/microlib/printf/printf.c         0x00000000   Number         0  printf0.o ABSOLUTE
    ../clib/microlib/printf/printf.c         0x00000000   Number         0  printfb.o ABSOLUTE
    ../clib/microlib/printf/stubs.s          0x00000000   Number         0  stubs.o ABSOLUTE
    ../clib/microlib/stdio/streams.c         0x00000000   Number         0  stdout.o ABSOLUTE
    ../clib/microlib/string/memcpy.c         0x00000000   Number         0  memcpya.o ABSOLUTE
    ../clib/microlib/string/memcpy.c         0x00000000   Number         0  memcpyb.o ABSOLUTE
    ../clib/microlib/string/memset.c         0x00000000   Number         0  memseta.o ABSOLUTE
    ../clib/microlib/string/strcmp.c         0x00000000   Number         0  strcmp.o ABSOLUTE
    ../clib/microlib/string/strlen.c         0x00000000   Number         0  strlen.o ABSOLUTE
    ../clib/microlib/string/strncmp.c        0x00000000   Number         0  strncmp.o ABSOLUTE
    ../clib/microlib/string/strncpy.c        0x00000000   Number         0  strncpy.o ABSOLUTE
    ../clib/microlib/stubs.s                 0x00000000   Number         0  iusefp.o ABSOLUTE
    ../clib/scanf.c                          0x00000000   Number         0  strtol.o ABSOLUTE
    ../clib/scanf.c                          0x00000000   Number         0  atoi.o ABSOLUTE
    ../clib/scanf.c                          0x00000000   Number         0  _strtoul.o ABSOLUTE
    ../clib/scanf.c                          0x00000000   Number         0  _chval.o ABSOLUTE
    ../fplib/microlib/fpadd.c                0x00000000   Number         0  dadd.o ABSOLUTE
    ../fplib/microlib/fpdiv.c                0x00000000   Number         0  ddiv.o ABSOLUTE
    ../fplib/microlib/fpepilogue.c           0x00000000   Number         0  depilogue.o ABSOLUTE
    ../fplib/microlib/fpfix.c                0x00000000   Number         0  dfixul.o ABSOLUTE
    ../fplib/microlib/fpmul.c                0x00000000   Number         0  dmul.o ABSOLUTE
    ..\..\components\drivers\serial\serial.c 0x00000000   Number         0  serial.o ABSOLUTE
    ..\..\components\drivers\src\completion.c 0x00000000   Number         0  completion.o ABSOLUTE
    ..\..\components\drivers\src\dataqueue.c 0x00000000   Number         0  dataqueue.o ABSOLUTE
    ..\..\components\drivers\src\pipe.c      0x00000000   Number         0  pipe.o ABSOLUTE
    ..\..\components\drivers\src\portal.c    0x00000000   Number         0  portal.o ABSOLUTE
    ..\..\components\drivers\src\ringbuffer.c 0x00000000   Number         0  ringbuffer.o ABSOLUTE
    ..\..\components\drivers\src\workqueue.c 0x00000000   Number         0  workqueue.o ABSOLUTE
    ..\..\components\finsh\cmd.c             0x00000000   Number         0  cmd.o ABSOLUTE
    ..\..\components\finsh\finsh_compiler.c  0x00000000   Number         0  finsh_compiler.o ABSOLUTE
    ..\..\components\finsh\finsh_error.c     0x00000000   Number         0  finsh_error.o ABSOLUTE
    ..\..\components\finsh\finsh_heap.c      0x00000000   Number         0  finsh_heap.o ABSOLUTE
    ..\..\components\finsh\finsh_init.c      0x00000000   Number         0  finsh_init.o ABSOLUTE
    ..\..\components\finsh\finsh_node.c      0x00000000   Number         0  finsh_node.o ABSOLUTE
    ..\..\components\finsh\finsh_ops.c       0x00000000   Number         0  finsh_ops.o ABSOLUTE
    ..\..\components\finsh\finsh_parser.c    0x00000000   Number         0  finsh_parser.o ABSOLUTE
    ..\..\components\finsh\finsh_token.c     0x00000000   Number         0  finsh_token.o ABSOLUTE
    ..\..\components\finsh\finsh_var.c       0x00000000   Number         0  finsh_var.o ABSOLUTE
    ..\..\components\finsh\finsh_vm.c        0x00000000   Number         0  finsh_vm.o ABSOLUTE
    ..\..\components\finsh\shell.c           0x00000000   Number         0  shell.o ABSOLUTE
    ..\..\components\finsh\symbol.c          0x00000000   Number         0  symbol.o ABSOLUTE
    ..\..\libcpu\arm\common\backtrace.c      0x00000000   Number         0  backtrace.o ABSOLUTE
    ..\..\libcpu\arm\common\div0.c           0x00000000   Number         0  div0.o ABSOLUTE
    ..\..\libcpu\arm\common\showmem.c        0x00000000   Number         0  showmem.o ABSOLUTE
    ..\..\libcpu\arm\cortex-m0\context_rvds.S 0x00000000   Number         0  context_rvds.o ABSOLUTE
    ..\..\libcpu\arm\cortex-m0\cpuport.c     0x00000000   Number         0  cpuport.o ABSOLUTE
    ..\..\src\clock.c                        0x00000000   Number         0  clock.o ABSOLUTE
    ..\..\src\components.c                   0x00000000   Number         0  components.o ABSOLUTE
    ..\..\src\device.c                       0x00000000   Number         0  device.o ABSOLUTE
    ..\..\src\idle.c                         0x00000000   Number         0  idle.o ABSOLUTE
    ..\..\src\ipc.c                          0x00000000   Number         0  ipc.o ABSOLUTE
    ..\..\src\irq.c                          0x00000000   Number         0  irq.o ABSOLUTE
    ..\..\src\kservice.c                     0x00000000   Number         0  kservice.o ABSOLUTE
    ..\..\src\mem.c                          0x00000000   Number         0  mem.o ABSOLUTE
    ..\..\src\object.c                       0x00000000   Number         0  object.o ABSOLUTE
    ..\..\src\scheduler.c                    0x00000000   Number         0  scheduler.o ABSOLUTE
    ..\..\src\thread.c                       0x00000000   Number         0  thread.o ABSOLUTE
    ..\..\src\timer.c                        0x00000000   Number         0  src_timer.o ABSOLUTE
    Libraries\CMSIS\Nuvoton\M051Series\Source\ARM\startup_M051Series.s 0x00000000   Number         0  startup_m051series.o ABSOLUTE
    Libraries\CMSIS\Nuvoton\M051Series\Source\system_M051Series.c 0x00000000   Number         0  system_m051series.o ABSOLUTE
    Libraries\StdDriver\src\acmp.c           0x00000000   Number         0  acmp.o ABSOLUTE
    Libraries\StdDriver\src\adc.c            0x00000000   Number         0  adc.o ABSOLUTE
    Libraries\StdDriver\src\clk.c            0x00000000   Number         0  clk.o ABSOLUTE
    Libraries\StdDriver\src\ebi.c            0x00000000   Number         0  ebi.o ABSOLUTE
    Libraries\StdDriver\src\fmc.c            0x00000000   Number         0  fmc.o ABSOLUTE
    Libraries\StdDriver\src\gpio.c           0x00000000   Number         0  gpio.o ABSOLUTE
    Libraries\StdDriver\src\i2c.c            0x00000000   Number         0  i2c.o ABSOLUTE
    Libraries\StdDriver\src\pwm.c            0x00000000   Number         0  pwm.o ABSOLUTE
    Libraries\StdDriver\src\spi.c            0x00000000   Number         0  spi.o ABSOLUTE
    Libraries\StdDriver\src\sys.c            0x00000000   Number         0  sys.o ABSOLUTE
    Libraries\StdDriver\src\timer.c          0x00000000   Number         0  timer.o ABSOLUTE
    Libraries\StdDriver\src\uart.c           0x00000000   Number         0  uart.o ABSOLUTE
    Libraries\StdDriver\src\wdt.c            0x00000000   Number         0  wdt.o ABSOLUTE
    Libraries\StdDriver\src\wwdt.c           0x00000000   Number         0  wwdt.o ABSOLUTE
    Libraries\\CMSIS\\Nuvoton\\M051Series\\Source\\system_M051Series.c 0x00000000   Number         0  system_m051series.o ABSOLUTE
    Libraries\\StdDriver\\src\\acmp.c        0x00000000   Number         0  acmp.o ABSOLUTE
    Libraries\\StdDriver\\src\\adc.c         0x00000000   Number         0  adc.o ABSOLUTE
    Libraries\\StdDriver\\src\\clk.c         0x00000000   Number         0  clk.o ABSOLUTE
    Libraries\\StdDriver\\src\\ebi.c         0x00000000   Number         0  ebi.o ABSOLUTE
    Libraries\\StdDriver\\src\\fmc.c         0x00000000   Number         0  fmc.o ABSOLUTE
    Libraries\\StdDriver\\src\\gpio.c        0x00000000   Number         0  gpio.o ABSOLUTE
    Libraries\\StdDriver\\src\\i2c.c         0x00000000   Number         0  i2c.o ABSOLUTE
    Libraries\\StdDriver\\src\\pwm.c         0x00000000   Number         0  pwm.o ABSOLUTE
    Libraries\\StdDriver\\src\\spi.c         0x00000000   Number         0  spi.o ABSOLUTE
    Libraries\\StdDriver\\src\\sys.c         0x00000000   Number         0  sys.o ABSOLUTE
    Libraries\\StdDriver\\src\\timer.c       0x00000000   Number         0  timer.o ABSOLUTE
    Libraries\\StdDriver\\src\\uart.c        0x00000000   Number         0  uart.o ABSOLUTE
    Libraries\\StdDriver\\src\\wdt.c         0x00000000   Number         0  wdt.o ABSOLUTE
    Libraries\\StdDriver\\src\\wwdt.c        0x00000000   Number         0  wwdt.o ABSOLUTE
    applications\\startup.c                  0x00000000   Number         0  startup.o ABSOLUTE
    applications\startup.c                   0x00000000   Number         0  startup.o ABSOLUTE
    cdrcmple.s                               0x00000000   Number         0  cdrcmple.o ABSOLUTE
    dc.s                                     0x00000000   Number         0  dc.o ABSOLUTE
    drivers\\board.c                         0x00000000   Number         0  board.o ABSOLUTE
    drivers\\led.c                           0x00000000   Number         0  led.o ABSOLUTE
    drivers\\printf.c                        0x00000000   Number         0  printf.o ABSOLUTE
    drivers\\usart.c                         0x00000000   Number         0  usart.o ABSOLUTE
    drivers\board.c                          0x00000000   Number         0  board.o ABSOLUTE
    drivers\led.c                            0x00000000   Number         0  led.o ABSOLUTE
    drivers\printf.c                         0x00000000   Number         0  printf.o ABSOLUTE
    drivers\usart.c                          0x00000000   Number         0  usart.o ABSOLUTE
    handlers.s                               0x00000000   Number         0  handlers.o ABSOLUTE
    init.s                                   0x00000000   Number         0  init.o ABSOLUTE
    .ARM.Collect$$$$00000000                 0x000000c0   Section        0  entry.o(.ARM.Collect$$$$00000000)
    .ARM.Collect$$$$00000001                 0x000000c0   Section        4  entry2.o(.ARM.Collect$$$$00000001)
    .ARM.Collect$$$$00000004                 0x000000c4   Section        4  entry5.o(.ARM.Collect$$$$00000004)
    .ARM.Collect$$$$00000008                 0x000000c8   Section        0  entry7b.o(.ARM.Collect$$$$00000008)
    .ARM.Collect$$$$0000000A                 0x000000c8   Section        0  entry8b.o(.ARM.Collect$$$$0000000A)
    .ARM.Collect$$$$0000000B                 0x000000c8   Section        8  entry9a.o(.ARM.Collect$$$$0000000B)
    .ARM.Collect$$$$0000000D                 0x000000d0   Section        0  entry10a.o(.ARM.Collect$$$$0000000D)
    .ARM.Collect$$$$0000000F                 0x000000d0   Section        0  entry11a.o(.ARM.Collect$$$$0000000F)
    .ARM.Collect$$$$00002712                 0x000000d0   Section        4  entry2.o(.ARM.Collect$$$$00002712)
    __lit__00000000                          0x000000d0   Data           4  entry2.o(.ARM.Collect$$$$00002712)
    .text                                    0x000000d4   Section       76  startup_m051series.o(.text)
    Default_Handler                          0x000000ff   Thumb Code     2  startup_m051series.o(.text)
    .text                                    0x00000120   Section      216  context_rvds.o(.text)
    .text                                    0x000001f8   Section        0  uidiv.o(.text)
    .text                                    0x00000224   Section        0  idiv.o(.text)
    .text                                    0x0000024c   Section        0  memcpya.o(.text)
    .text                                    0x00000270   Section        0  memseta.o(.text)
    .text                                    0x00000294   Section        0  strncpy.o(.text)
    .text                                    0x000002ae   Section        0  strlen.o(.text)
    .text                                    0x000002bc   Section        0  strcmp.o(.text)
    .text                                    0x000002d8   Section        0  strncmp.o(.text)
    .text                                    0x000002f6   Section        0  atoi.o(.text)
    .text                                    0x00000310   Section        0  strtol.o(.text)
    .text                                    0x00000380   Section       36  init.o(.text)
    .text                                    0x000003a4   Section        0  ctype_o.o(.text)
    .text                                    0x000003ac   Section        0  _strtoul.o(.text)
    .text                                    0x00000452   Section        0  _chval.o(.text)
    .text                                    0x00000470   Section        0  __dczerorl2.o(.text)
    i.CLK_EnableModuleClock                  0x000004c8   Section        0  clk.o(i.CLK_EnableModuleClock)
    i.CLK_EnablePLL                          0x000004ec   Section        0  clk.o(i.CLK_EnablePLL)
    i.CLK_EnableXtalRC                       0x00000614   Section        0  clk.o(i.CLK_EnableXtalRC)
    i.CLK_GetPLLClockFreq                    0x00000624   Section        0  system_m051series.o(i.CLK_GetPLLClockFreq)
    CLK_GetPLLClockFreq                      0x00000625   Thumb Code   112  system_m051series.o(i.CLK_GetPLLClockFreq)
    i.CLK_GetPLLClockFreq                    0x000006a4   Section        0  clk.o(i.CLK_GetPLLClockFreq)
    CLK_GetPLLClockFreq                      0x000006a5   Thumb Code   112  clk.o(i.CLK_GetPLLClockFreq)
    i.CLK_GetPLLClockFreq                    0x00000724   Section        0  uart.o(i.CLK_GetPLLClockFreq)
    CLK_GetPLLClockFreq                      0x00000725   Thumb Code   112  uart.o(i.CLK_GetPLLClockFreq)
    i.CLK_SetCoreClock                       0x000007a4   Section        0  clk.o(i.CLK_SetCoreClock)
    i.CLK_SetHCLK                            0x000007f8   Section        0  clk.o(i.CLK_SetHCLK)
    i.CLK_SetModuleClock                     0x00000824   Section        0  clk.o(i.CLK_SetModuleClock)
    i.CLK_WaitClockReady                     0x00000888   Section        0  clk.o(i.CLK_WaitClockReady)
    i.GPIO_SetMode                           0x000008ac   Section        0  gpio.o(i.GPIO_SetMode)
    i.NVIC_SetPriority                       0x000008dc   Section        0  board.o(i.NVIC_SetPriority)
    NVIC_SetPriority                         0x000008dd   Thumb Code   110  board.o(i.NVIC_SetPriority)
    i.OP_add_byte                            0x00000954   Section        0  finsh_ops.o(i.OP_add_byte)
    i.OP_add_dword                           0x00000984   Section        0  finsh_ops.o(i.OP_add_dword)
    i.OP_add_word                            0x000009b4   Section        0  finsh_ops.o(i.OP_add_word)
    i.OP_and_byte                            0x000009e4   Section        0  finsh_ops.o(i.OP_and_byte)
    i.OP_and_dword                           0x00000a14   Section        0  finsh_ops.o(i.OP_and_dword)
    i.OP_and_word                            0x00000a44   Section        0  finsh_ops.o(i.OP_and_word)
    i.OP_bw_byte                             0x00000a78   Section        0  finsh_ops.o(i.OP_bw_byte)
    i.OP_bw_dword                            0x00000a94   Section        0  finsh_ops.o(i.OP_bw_dword)
    i.OP_bw_word                             0x00000aac   Section        0  finsh_ops.o(i.OP_bw_word)
    i.OP_call                                0x00000ac8   Section        0  finsh_ops.o(i.OP_call)
    i.OP_div_byte                            0x00000e54   Section        0  finsh_ops.o(i.OP_div_byte)
    i.OP_div_dword                           0x00000e88   Section        0  finsh_ops.o(i.OP_div_dword)
    i.OP_div_word                            0x00000ebc   Section        0  finsh_ops.o(i.OP_div_word)
    i.OP_ld_byte                             0x00000ef4   Section        0  finsh_ops.o(i.OP_ld_byte)
    i.OP_ld_dword                            0x00000f20   Section        0  finsh_ops.o(i.OP_ld_dword)
    i.OP_ld_value_byte                       0x00000f68   Section        0  finsh_ops.o(i.OP_ld_value_byte)
    i.OP_ld_value_byte_stack                 0x00000fb4   Section        0  finsh_ops.o(i.OP_ld_value_byte_stack)
    i.OP_ld_value_dword                      0x00000fcc   Section        0  finsh_ops.o(i.OP_ld_value_dword)
    i.OP_ld_value_dword_stack                0x00001018   Section        0  finsh_ops.o(i.OP_ld_value_dword_stack)
    i.OP_ld_value_word                       0x00001030   Section        0  finsh_ops.o(i.OP_ld_value_word)
    i.OP_ld_value_word_stack                 0x0000107c   Section        0  finsh_ops.o(i.OP_ld_value_word_stack)
    i.OP_ld_word                             0x00001094   Section        0  finsh_ops.o(i.OP_ld_word)
    i.OP_mod_byte                            0x000010cc   Section        0  finsh_ops.o(i.OP_mod_byte)
    i.OP_mod_dword                           0x00001100   Section        0  finsh_ops.o(i.OP_mod_dword)
    i.OP_mod_word                            0x00001134   Section        0  finsh_ops.o(i.OP_mod_word)
    i.OP_mul_byte                            0x0000116c   Section        0  finsh_ops.o(i.OP_mul_byte)
    i.OP_mul_dword                           0x0000119c   Section        0  finsh_ops.o(i.OP_mul_dword)
    i.OP_mul_word                            0x000011cc   Section        0  finsh_ops.o(i.OP_mul_word)
    i.OP_no_op                               0x000011fc   Section        0  finsh_ops.o(i.OP_no_op)
    i.OP_or_byte                             0x00001200   Section        0  finsh_ops.o(i.OP_or_byte)
    i.OP_or_dword                            0x00001230   Section        0  finsh_ops.o(i.OP_or_dword)
    i.OP_or_word                             0x00001260   Section        0  finsh_ops.o(i.OP_or_word)
    i.OP_pop                                 0x00001294   Section        0  finsh_ops.o(i.OP_pop)
    i.OP_shl_byte                            0x000012a4   Section        0  finsh_ops.o(i.OP_shl_byte)
    i.OP_shl_dword                           0x000012d4   Section        0  finsh_ops.o(i.OP_shl_dword)
    i.OP_shl_word                            0x00001304   Section        0  finsh_ops.o(i.OP_shl_word)
    i.OP_shr_byte                            0x00001334   Section        0  finsh_ops.o(i.OP_shr_byte)
    i.OP_shr_dword                           0x00001364   Section        0  finsh_ops.o(i.OP_shr_dword)
    i.OP_shr_word                            0x00001394   Section        0  finsh_ops.o(i.OP_shr_word)
    i.OP_st_byte                             0x000013c4   Section        0  finsh_ops.o(i.OP_st_byte)
    i.OP_st_dword                            0x000013e8   Section        0  finsh_ops.o(i.OP_st_dword)
    i.OP_st_word                             0x0000140c   Section        0  finsh_ops.o(i.OP_st_word)
    i.OP_sub_byte                            0x00001430   Section        0  finsh_ops.o(i.OP_sub_byte)
    i.OP_sub_dword                           0x00001460   Section        0  finsh_ops.o(i.OP_sub_dword)
    i.OP_sub_word                            0x00001490   Section        0  finsh_ops.o(i.OP_sub_word)
    i.OP_xor_byte                            0x000014c0   Section        0  finsh_ops.o(i.OP_xor_byte)
    i.OP_xor_dword                           0x000014f0   Section        0  finsh_ops.o(i.OP_xor_dword)
    i.OP_xor_word                            0x00001520   Section        0  finsh_ops.o(i.OP_xor_word)
    i.SYS_ResetModule                        0x00001554   Section        0  sys.o(i.SYS_ResetModule)
    i.SendChar                               0x00001588   Section        0  printf.o(i.SendChar)
    i.SendChar_ToUART                        0x00001594   Section        0  printf.o(i.SendChar_ToUART)
    i.SysTick_Handler                        0x000015c8   Section        0  board.o(i.SysTick_Handler)
    i.SystemCoreClockUpdate                  0x000015d8   Section        0  system_m051series.o(i.SystemCoreClockUpdate)
    i.SystemInit                             0x0000163c   Section        0  system_m051series.o(i.SystemInit)
    i.UART0_IRQHandler                       0x000016f0   Section        0  usart.o(i.UART0_IRQHandler)
    i.UART_Open                              0x00001718   Section        0  uart.o(i.UART_Open)
    i.__0printf$1                            0x000017ac   Section        0  printf1.o(i.__0printf$1)
    i.__ARM_common_switch8                   0x000017cc   Section        0  ebi.o(i.__ARM_common_switch8)
    i.__aeabi_errno_addr                     0x000017e8   Section        0  errno.o(i.__aeabi_errno_addr)
    i.__rt_ffs                               0x000017f0   Section        0  kservice.o(i.__rt_ffs)
    i.__scatterload_copy                     0x0000184c   Section       14  handlers.o(i.__scatterload_copy)
    i.__scatterload_null                     0x0000185a   Section        2  handlers.o(i.__scatterload_null)
    i.__scatterload_zeroinit                 0x0000185c   Section       14  handlers.o(i.__scatterload_zeroinit)
    i._has_defunct_thread                    0x0000186c   Section        0  idle.o(i._has_defunct_thread)
    _has_defunct_thread                      0x0000186d   Thumb Code    16  idle.o(i._has_defunct_thread)
    i._list_device                           0x00001880   Section        0  cmd.o(i._list_device)
    _list_device                             0x00001881   Thumb Code   122  cmd.o(i._list_device)
    i._list_sem                              0x00001968   Section        0  cmd.o(i._list_sem)
    _list_sem                                0x00001969   Thumb Code   150  cmd.o(i._list_sem)
    i._list_thread                           0x00001a60   Section        0  cmd.o(i._list_thread)
    _list_thread                             0x00001a61   Thumb Code   198  cmd.o(i._list_thread)
    i._list_timer                            0x00001bd8   Section        0  cmd.o(i._list_timer)
    _list_timer                              0x00001bd9   Thumb Code   110  cmd.o(i._list_timer)
    i._printf_core                           0x00001ce8   Section        0  printf1.o(i._printf_core)
    _printf_core                             0x00001ce9   Thumb Code   332  printf1.o(i._printf_core)
    i._rt_thread_init                        0x00001e38   Section        0  thread.o(i._rt_thread_init)
    _rt_thread_init                          0x00001e39   Thumb Code   122  thread.o(i._rt_thread_init)
    i._rt_timer_init                         0x00001ebc   Section        0  src_timer.o(i._rt_timer_init)
    _rt_timer_init                           0x00001ebd   Thumb Code    60  src_timer.o(i._rt_timer_init)
    i._rt_timer_remove                       0x00001ef8   Section        0  src_timer.o(i._rt_timer_remove)
    _rt_timer_remove                         0x00001ef9   Thumb Code    46  src_timer.o(i._rt_timer_remove)
    i.finsh_block_insert                     0x00001f26   Section        0  finsh_heap.o(i.finsh_block_insert)
    finsh_block_insert                       0x00001f27   Thumb Code    68  finsh_heap.o(i.finsh_block_insert)
    i.finsh_block_merge                      0x00001f6a   Section        0  finsh_heap.o(i.finsh_block_merge)
    finsh_block_merge                        0x00001f6b   Thumb Code   130  finsh_heap.o(i.finsh_block_merge)
    i.finsh_block_remove                     0x00001fec   Section        0  finsh_heap.o(i.finsh_block_remove)
    finsh_block_remove                       0x00001fed   Thumb Code    46  finsh_heap.o(i.finsh_block_remove)
    i.finsh_block_split                      0x0000201a   Section        0  finsh_heap.o(i.finsh_block_split)
    finsh_block_split                        0x0000201b   Thumb Code    24  finsh_heap.o(i.finsh_block_split)
    i.finsh_compile                          0x00002034   Section        0  finsh_compiler.o(i.finsh_compile)
    finsh_compile                            0x00002035   Thumb Code  5858  finsh_compiler.o(i.finsh_compile)
    i.finsh_compiler_run                     0x0000371c   Section        0  finsh_compiler.o(i.finsh_compiler_run)
    i.finsh_errno                            0x00003788   Section        0  finsh_error.o(i.finsh_errno)
    i.finsh_error_init                       0x00003794   Section        0  finsh_error.o(i.finsh_error_init)
    i.finsh_error_set                        0x000037a0   Section        0  finsh_error.o(i.finsh_error_set)
    i.finsh_error_string                     0x000037b0   Section        0  finsh_error.o(i.finsh_error_string)
    i.finsh_flush                            0x000037c0   Section        0  finsh_init.o(i.finsh_flush)
    i.finsh_heap_allocate                    0x000037d8   Section        0  finsh_heap.o(i.finsh_heap_allocate)
    i.finsh_heap_free                        0x00003854   Section        0  finsh_heap.o(i.finsh_heap_free)
    i.finsh_heap_gc                          0x00003880   Section        0  finsh_heap.o(i.finsh_heap_gc)
    finsh_heap_gc                            0x00003881   Thumb Code    74  finsh_heap.o(i.finsh_heap_gc)
    i.finsh_heap_init                        0x000038d4   Section        0  finsh_heap.o(i.finsh_heap_init)
    i.finsh_init                             0x00003904   Section        0  finsh_init.o(i.finsh_init)
    i.finsh_node_allocate                    0x00003924   Section        0  finsh_node.o(i.finsh_node_allocate)
    i.finsh_node_init                        0x0000395c   Section        0  finsh_node.o(i.finsh_node_init)
    i.finsh_node_new_char                    0x00003970   Section        0  finsh_node.o(i.finsh_node_new_char)
    i.finsh_node_new_id                      0x00003990   Section        0  finsh_node.o(i.finsh_node_new_id)
    i.finsh_node_new_int                     0x00003a0c   Section        0  finsh_node.o(i.finsh_node_new_int)
    i.finsh_node_new_long                    0x00003a2c   Section        0  finsh_node.o(i.finsh_node_new_long)
    i.finsh_node_new_ptr                     0x00003a4c   Section        0  finsh_node.o(i.finsh_node_new_ptr)
    i.finsh_node_new_string                  0x00003a6c   Section        0  finsh_node.o(i.finsh_node_new_string)
    i.finsh_parser_init                      0x00003ab8   Section        0  finsh_parser.o(i.finsh_parser_init)
    i.finsh_parser_run                       0x00003ac8   Section        0  finsh_parser.o(i.finsh_parser_run)
    i.finsh_run_line                         0x00003bb0   Section        0  shell.o(i.finsh_run_line)
    i.finsh_rx_ind                           0x00003c88   Section        0  shell.o(i.finsh_rx_ind)
    finsh_rx_ind                             0x00003c89   Thumb Code    18  shell.o(i.finsh_rx_ind)
    i.finsh_stack_bottom                     0x00003ca0   Section        0  finsh_init.o(i.finsh_stack_bottom)
    i.finsh_syscall_lookup                   0x00003cac   Section        0  finsh_vm.o(i.finsh_syscall_lookup)
    i.finsh_system_function_init             0x00003d08   Section        0  shell.o(i.finsh_system_function_init)
    i.finsh_system_init                      0x00003d1c   Section        0  shell.o(i.finsh_system_init)
    i.finsh_system_var_init                  0x00003de0   Section        0  shell.o(i.finsh_system_var_init)
    i.finsh_sysvar_lookup                    0x00003df4   Section        0  finsh_var.o(i.finsh_sysvar_lookup)
    i.finsh_thread_entry                     0x00003e50   Section        0  shell.o(i.finsh_thread_entry)
    i.finsh_token_init                       0x0000438c   Section        0  finsh_token.o(i.finsh_token_init)
    i.finsh_token_token                      0x000043a0   Section        0  finsh_token.o(i.finsh_token_token)
    i.finsh_type_check                       0x000043ba   Section        0  finsh_compiler.o(i.finsh_type_check)
    finsh_type_check                         0x000043bb   Thumb Code   362  finsh_compiler.o(i.finsh_type_check)
    i.finsh_var_init                         0x00004524   Section        0  finsh_var.o(i.finsh_var_init)
    i.finsh_var_insert                       0x00004538   Section        0  finsh_var.o(i.finsh_var_insert)
    i.finsh_var_lookup                       0x000045a8   Section        0  finsh_var.o(i.finsh_var_lookup)
    i.finsh_vm_run                           0x000045e4   Section        0  finsh_vm.o(i.finsh_vm_run)
    i.fputc                                  0x00004638   Section        0  printf.o(i.fputc)
    i.hello                                  0x00004648   Section        0  cmd.o(i.hello)
    i.list                                   0x00004668   Section        0  cmd.o(i.list)
    i.list_device                            0x00004744   Section        0  cmd.o(i.list_device)
    i.list_mem                               0x00004754   Section        0  mem.o(i.list_mem)
    i.list_prefix                            0x000047cc   Section        0  cmd.o(i.list_prefix)
    i.list_sem                               0x00004a04   Section        0  cmd.o(i.list_sem)
    i.list_thread                            0x00004a14   Section        0  cmd.o(i.list_thread)
    i.list_timer                             0x00004a24   Section        0  cmd.o(i.list_timer)
    i.main                                   0x00004a34   Section        0  startup.o(i.main)
    i.make_sys_node                          0x00004bc4   Section        0  finsh_parser.o(i.make_sys_node)
    make_sys_node                            0x00004bc5   Thumb Code    40  finsh_parser.o(i.make_sys_node)
    i.object_name_maxlen                     0x00004bec   Section        0  cmd.o(i.object_name_maxlen)
    object_name_maxlen                       0x00004bed   Thumb Code    62  cmd.o(i.object_name_maxlen)
    i.object_split                           0x00004c2c   Section        0  cmd.o(i.object_split)
    object_split                             0x00004c2d   Thumb Code    22  cmd.o(i.object_split)
    i.plug_holes                             0x00004c48   Section        0  mem.o(i.plug_holes)
    plug_holes                               0x00004c49   Thumb Code   112  mem.o(i.plug_holes)
    i.print_number                           0x00004cc4   Section        0  kservice.o(i.print_number)
    print_number                             0x00004cc5   Thumb Code   386  kservice.o(i.print_number)
    i.proc_additive_expr                     0x00004e50   Section        0  finsh_parser.o(i.proc_additive_expr)
    proc_additive_expr                       0x00004e51   Thumb Code   112  finsh_parser.o(i.proc_additive_expr)
    i.proc_and_expr                          0x00004ec0   Section        0  finsh_parser.o(i.proc_and_expr)
    proc_and_expr                            0x00004ec1   Thumb Code    74  finsh_parser.o(i.proc_and_expr)
    i.proc_assign_expr                       0x00004f0a   Section        0  finsh_parser.o(i.proc_assign_expr)
    proc_assign_expr                         0x00004f0b   Thumb Code    52  finsh_parser.o(i.proc_assign_expr)
    i.proc_cast_expr                         0x00004f3e   Section        0  finsh_parser.o(i.proc_cast_expr)
    proc_cast_expr                           0x00004f3f   Thumb Code    76  finsh_parser.o(i.proc_cast_expr)
    i.proc_exclusive_or_expr                 0x00004f8a   Section        0  finsh_parser.o(i.proc_exclusive_or_expr)
    proc_exclusive_or_expr                   0x00004f8b   Thumb Code    74  finsh_parser.o(i.proc_exclusive_or_expr)
    i.proc_expr                              0x00004fd4   Section        0  finsh_parser.o(i.proc_expr)
    proc_expr                                0x00004fd5   Thumb Code    12  finsh_parser.o(i.proc_expr)
    i.proc_expr_statement                    0x00004fe0   Section        0  finsh_parser.o(i.proc_expr_statement)
    proc_expr_statement                      0x00004fe1   Thumb Code    56  finsh_parser.o(i.proc_expr_statement)
    i.proc_identifier                        0x00005018   Section        0  finsh_parser.o(i.proc_identifier)
    proc_identifier                          0x00005019   Thumb Code    44  finsh_parser.o(i.proc_identifier)
    i.proc_inclusive_or_expr                 0x00005044   Section        0  finsh_parser.o(i.proc_inclusive_or_expr)
    proc_inclusive_or_expr                   0x00005045   Thumb Code    74  finsh_parser.o(i.proc_inclusive_or_expr)
    i.proc_multiplicative_expr               0x0000508e   Section        0  finsh_parser.o(i.proc_multiplicative_expr)
    proc_multiplicative_expr                 0x0000508f   Thumb Code   136  finsh_parser.o(i.proc_multiplicative_expr)
    i.proc_param_list                        0x00005116   Section        0  finsh_parser.o(i.proc_param_list)
    proc_param_list                          0x00005117   Thumb Code    74  finsh_parser.o(i.proc_param_list)
    i.proc_postfix_expr                      0x00005160   Section        0  finsh_parser.o(i.proc_postfix_expr)
    proc_postfix_expr                        0x00005161   Thumb Code   158  finsh_parser.o(i.proc_postfix_expr)
    i.proc_primary_expr                      0x000051fe   Section        0  finsh_parser.o(i.proc_primary_expr)
    proc_primary_expr                        0x000051ff   Thumb Code   158  finsh_parser.o(i.proc_primary_expr)
    i.proc_shift_expr                        0x0000529c   Section        0  finsh_parser.o(i.proc_shift_expr)
    proc_shift_expr                          0x0000529d   Thumb Code   114  finsh_parser.o(i.proc_shift_expr)
    i.proc_type                              0x0000530e   Section        0  finsh_parser.o(i.proc_type)
    proc_type                                0x0000530f   Thumb Code   250  finsh_parser.o(i.proc_type)
    i.proc_unary_expr                        0x00005408   Section        0  finsh_parser.o(i.proc_unary_expr)
    proc_unary_expr                          0x00005409   Thumb Code   186  finsh_parser.o(i.proc_unary_expr)
    i.proc_variable_decl                     0x000054c2   Section        0  finsh_parser.o(i.proc_variable_decl)
    proc_variable_decl                       0x000054c3   Thumb Code   482  finsh_parser.o(i.proc_variable_decl)
    i.rt_application_init                    0x000056a4   Section        0  startup.o(i.rt_application_init)
    i.rt_completion_done                     0x00005724   Section        0  completion.o(i.rt_completion_done)
    i.rt_components_board_init               0x00005770   Section        0  components.o(i.rt_components_board_init)
    i.rt_console_get_device                  0x0000578c   Section        0  kservice.o(i.rt_console_get_device)
    i.rt_console_set_device                  0x00005798   Section        0  kservice.o(i.rt_console_set_device)
    i.rt_data_queue_peak                     0x000057d0   Section        0  dataqueue.o(i.rt_data_queue_peak)
    i.rt_data_queue_pop                      0x0000581e   Section        0  dataqueue.o(i.rt_data_queue_pop)
    i.rt_device_close                        0x00005922   Section        0  device.o(i.rt_device_close)
    i.rt_device_find                         0x00005964   Section        0  device.o(i.rt_device_find)
    i.rt_device_open                         0x000059b8   Section        0  device.o(i.rt_device_open)
    i.rt_device_read                         0x00005a6c   Section        0  device.o(i.rt_device_read)
    i.rt_device_set_rx_indicate              0x00005aa8   Section        0  device.o(i.rt_device_set_rx_indicate)
    i.rt_device_write                        0x00005ab0   Section        0  device.o(i.rt_device_write)
    i.rt_dma_calc_recved_len                 0x00005aec   Section        0  serial.o(i.rt_dma_calc_recved_len)
    rt_dma_calc_recved_len                   0x00005aed   Thumb Code    62  serial.o(i.rt_dma_calc_recved_len)
    i.rt_dma_recv_update_put_index           0x00005b2a   Section        0  serial.o(i.rt_dma_recv_update_put_index)
    rt_dma_recv_update_put_index             0x00005b2b   Thumb Code   132  serial.o(i.rt_dma_recv_update_put_index)
    i.rt_enter_critical                      0x00005bb0   Section        0  scheduler.o(i.rt_enter_critical)
    i.rt_exit_critical                       0x00005bd0   Section        0  scheduler.o(i.rt_exit_critical)
    i.rt_free                                0x00005c0c   Section        0  mem.o(i.rt_free)
    i.rt_hw_board_init                       0x00005c84   Section        0  board.o(i.rt_hw_board_init)
    i.rt_hw_console_output                   0x00005cd8   Section        0  kservice.o(i.rt_hw_console_output)
    i.rt_hw_hard_fault_exception             0x00005cdc   Section        0  cpuport.o(i.rt_hw_hard_fault_exception)
    i.rt_hw_led_init                         0x00005dd0   Section        0  led.o(i.rt_hw_led_init)
    i.rt_hw_serial_isr                       0x00005de4   Section        0  serial.o(i.rt_hw_serial_isr)
    i.rt_hw_stack_init                       0x00005f3c   Section        0  cpuport.o(i.rt_hw_stack_init)
    i.rt_interrupt_enter                     0x00005f7c   Section        0  irq.o(i.rt_interrupt_enter)
    i.rt_interrupt_get_nest                  0x00005f9c   Section        0  irq.o(i.rt_interrupt_get_nest)
    i.rt_interrupt_leave                     0x00005fa8   Section        0  irq.o(i.rt_interrupt_leave)
    i.rt_ipc_list_suspend                    0x00005fc8   Section        0  ipc.o(i.rt_ipc_list_suspend)
    rt_ipc_list_suspend                      0x00005fc9   Thumb Code    98  ipc.o(i.rt_ipc_list_suspend)
    i.rt_ipc_object_init                     0x0000602a   Section        0  ipc.o(i.rt_ipc_object_init)
    rt_ipc_object_init                       0x0000602b   Thumb Code    16  ipc.o(i.rt_ipc_object_init)
    i.rt_kprintf                             0x0000603c   Section        0  kservice.o(i.rt_kprintf)
    i.rt_list_init                           0x000060a8   Section        0  scheduler.o(i.rt_list_init)
    rt_list_init                             0x000060a9   Thumb Code     6  scheduler.o(i.rt_list_init)
    i.rt_list_init                           0x000060ae   Section        0  src_timer.o(i.rt_list_init)
    rt_list_init                             0x000060af   Thumb Code     6  src_timer.o(i.rt_list_init)
    i.rt_list_insert_after                   0x000060b4   Section        0  object.o(i.rt_list_insert_after)
    rt_list_insert_after                     0x000060b5   Thumb Code    14  object.o(i.rt_list_insert_after)
    i.rt_list_insert_after                   0x000060c2   Section        0  thread.o(i.rt_list_insert_after)
    rt_list_insert_after                     0x000060c3   Thumb Code    14  thread.o(i.rt_list_insert_after)
    i.rt_list_insert_after                   0x000060d0   Section        0  src_timer.o(i.rt_list_insert_after)
    rt_list_insert_after                     0x000060d1   Thumb Code    14  src_timer.o(i.rt_list_insert_after)
    i.rt_list_insert_before                  0x000060de   Section        0  ipc.o(i.rt_list_insert_before)
    rt_list_insert_before                    0x000060df   Thumb Code    14  ipc.o(i.rt_list_insert_before)
    i.rt_list_insert_before                  0x000060ec   Section        0  dataqueue.o(i.rt_list_insert_before)
    rt_list_insert_before                    0x000060ed   Thumb Code    14  dataqueue.o(i.rt_list_insert_before)
    i.rt_list_isempty                        0x000060fa   Section        0  ipc.o(i.rt_list_isempty)
    rt_list_isempty                          0x000060fb   Thumb Code    16  ipc.o(i.rt_list_isempty)
    i.rt_list_isempty                        0x0000610a   Section        0  src_timer.o(i.rt_list_isempty)
    rt_list_isempty                          0x0000610b   Thumb Code    16  src_timer.o(i.rt_list_isempty)
    i.rt_list_isempty                        0x0000611a   Section        0  dataqueue.o(i.rt_list_isempty)
    rt_list_isempty                          0x0000611b   Thumb Code    16  dataqueue.o(i.rt_list_isempty)
    i.rt_list_len                            0x0000612a   Section        0  cmd.o(i.rt_list_len)
    rt_list_len                              0x0000612b   Thumb Code    20  cmd.o(i.rt_list_len)
    i.rt_list_remove                         0x0000613e   Section        0  object.o(i.rt_list_remove)
    rt_list_remove                           0x0000613f   Thumb Code    18  object.o(i.rt_list_remove)
    i.rt_list_remove                         0x00006150   Section        0  thread.o(i.rt_list_remove)
    rt_list_remove                           0x00006151   Thumb Code    18  thread.o(i.rt_list_remove)
    i.rt_malloc                              0x00006164   Section        0  mem.o(i.rt_malloc)
    i.rt_memmove                             0x000062d0   Section        0  kservice.o(i.rt_memmove)
    i.rt_memset                              0x00006312   Section        0  kservice.o(i.rt_memset)
    i.rt_object_allocate                     0x00006360   Section        0  object.o(i.rt_object_allocate)
    i.rt_object_delete                       0x000063a8   Section        0  object.o(i.rt_object_delete)
    i.rt_object_detach                       0x000063c8   Section        0  object.o(i.rt_object_detach)
    i.rt_object_init                         0x000063e4   Section        0  object.o(i.rt_object_init)
    i.rt_object_is_systemobject              0x00006420   Section        0  object.o(i.rt_object_is_systemobject)
    i.rt_schedule                            0x00006434   Section        0  scheduler.o(i.rt_schedule)
    i.rt_schedule_insert_thread              0x000064b0   Section        0  scheduler.o(i.rt_schedule_insert_thread)
    i.rt_schedule_remove_thread              0x000064f8   Section        0  scheduler.o(i.rt_schedule_remove_thread)
    i.rt_sem_init                            0x00006550   Section        0  ipc.o(i.rt_sem_init)
    i.rt_sem_release                         0x00006572   Section        0  ipc.o(i.rt_sem_release)
    i.rt_sem_take                            0x000065b6   Section        0  ipc.o(i.rt_sem_take)
    i.rt_set_errno                           0x00006630   Section        0  kservice.o(i.rt_set_errno)
    i.rt_show_version                        0x0000665c   Section        0  kservice.o(i.rt_show_version)
    i.rt_soft_timer_check                    0x0000670c   Section        0  src_timer.o(i.rt_soft_timer_check)
    i.rt_strlen                              0x00006790   Section        0  kservice.o(i.rt_strlen)
    i.rt_strncmp                             0x000067a2   Section        0  kservice.o(i.rt_strncmp)
    i.rt_strncpy                             0x000067cc   Section        0  kservice.o(i.rt_strncpy)
    i.rt_system_heap_init                    0x00006804   Section        0  mem.o(i.rt_system_heap_init)
    i.rt_system_scheduler_init               0x000068f8   Section        0  scheduler.o(i.rt_system_scheduler_init)
    i.rt_system_scheduler_start              0x00006944   Section        0  scheduler.o(i.rt_system_scheduler_start)
    i.rt_system_timer_init                   0x00006974   Section        0  src_timer.o(i.rt_system_timer_init)
    i.rt_system_timer_thread_init            0x00006990   Section        0  src_timer.o(i.rt_system_timer_thread_init)
    i.rt_thread_create                       0x000069e4   Section        0  thread.o(i.rt_thread_create)
    i.rt_thread_delay                        0x00006a34   Section        0  thread.o(i.rt_thread_delay)
    i.rt_thread_exit                         0x00006a40   Section        0  thread.o(i.rt_thread_exit)
    i.rt_thread_idle_entry                   0x00006a98   Section        0  idle.o(i.rt_thread_idle_entry)
    rt_thread_idle_entry                     0x00006a99   Thumb Code     8  idle.o(i.rt_thread_idle_entry)
    i.rt_thread_idle_excute                  0x00006aa0   Section        0  idle.o(i.rt_thread_idle_excute)
    i.rt_thread_idle_init                    0x00006b1c   Section        0  idle.o(i.rt_thread_idle_init)
    i.rt_thread_init                         0x00006b58   Section        0  thread.o(i.rt_thread_init)
    i.rt_thread_resume                       0x00006b84   Section        0  thread.o(i.rt_thread_resume)
    i.rt_thread_self                         0x00006bbc   Section        0  thread.o(i.rt_thread_self)
    i.rt_thread_sleep                        0x00006bc8   Section        0  thread.o(i.rt_thread_sleep)
    i.rt_thread_startup                      0x00006c0c   Section        0  thread.o(i.rt_thread_startup)
    i.rt_thread_suspend                      0x00006c3c   Section        0  thread.o(i.rt_thread_suspend)
    i.rt_thread_timeout                      0x00006c72   Section        0  thread.o(i.rt_thread_timeout)
    i.rt_thread_timer_entry                  0x00006c94   Section        0  src_timer.o(i.rt_thread_timer_entry)
    rt_thread_timer_entry                    0x00006c95   Thumb Code    62  src_timer.o(i.rt_thread_timer_entry)
    i.rt_thread_yield                        0x00006cdc   Section        0  thread.o(i.rt_thread_yield)
    i.rt_tick_get                            0x00006d3c   Section        0  clock.o(i.rt_tick_get)
    i.rt_tick_increase                       0x00006d48   Section        0  clock.o(i.rt_tick_increase)
    i.rt_timer_check                         0x00006d78   Section        0  src_timer.o(i.rt_timer_check)
    i.rt_timer_control                       0x00006df8   Section        0  src_timer.o(i.rt_timer_control)
    i.rt_timer_detach                        0x00006e34   Section        0  src_timer.o(i.rt_timer_detach)
    i.rt_timer_init                          0x00006e54   Section        0  src_timer.o(i.rt_timer_init)
    i.rt_timer_list_next_timeout             0x00006e7a   Section        0  src_timer.o(i.rt_timer_list_next_timeout)
    rt_timer_list_next_timeout               0x00006e7b   Thumb Code    30  src_timer.o(i.rt_timer_list_next_timeout)
    i.rt_timer_start                         0x00006e98   Section        0  src_timer.o(i.rt_timer_start)
    i.rt_timer_stop                          0x00006fd4   Section        0  src_timer.o(i.rt_timer_stop)
    i.rt_vsnprintf                           0x00007004   Section        0  kservice.o(i.rt_vsnprintf)
    i.rti_board_end                          0x00007360   Section        0  components.o(i.rti_board_end)
    rti_board_end                            0x00007361   Thumb Code     4  components.o(i.rti_board_end)
    i.rti_board_start                        0x00007364   Section        0  components.o(i.rti_board_start)
    rti_board_start                          0x00007365   Thumb Code     4  components.o(i.rti_board_start)
    i.rti_end                                0x00007368   Section        0  components.o(i.rti_end)
    rti_end                                  0x00007369   Thumb Code     4  components.o(i.rti_end)
    i.rti_start                              0x0000736c   Section        0  components.o(i.rti_start)
    rti_start                                0x0000736d   Thumb Code     4  components.o(i.rti_start)
    i.shell_auto_complete                    0x00007370   Section        0  shell.o(i.shell_auto_complete)
    shell_auto_complete                      0x00007371   Thumb Code    28  shell.o(i.shell_auto_complete)
    i.show_wait_queue                        0x000073a0   Section        0  cmd.o(i.show_wait_queue)
    show_wait_queue                          0x000073a1   Thumb Code    40  cmd.o(i.show_wait_queue)
    i.skip_atoi                              0x000073d0   Section        0  kservice.o(i.skip_atoi)
    skip_atoi                                0x000073d1   Thumb Code    36  kservice.o(i.skip_atoi)
    i.str_common                             0x000073f4   Section        0  cmd.o(i.str_common)
    str_common                               0x000073f5   Thumb Code    36  cmd.o(i.str_common)
    i.str_is_prefix                          0x00007418   Section        0  cmd.o(i.str_is_prefix)
    str_is_prefix                            0x00007419   Thumb Code    36  cmd.o(i.str_is_prefix)
    i.thread_entry                           0x0000743c   Section        0  startup.o(i.thread_entry)
    thread_entry                             0x0000743d   Thumb Code    28  startup.o(i.thread_entry)
    i.token_get_string                       0x0000746c   Section        0  finsh_token.o(i.token_get_string)
    i.token_match_name                       0x000074e4   Section        0  finsh_token.o(i.token_match_name)
    token_match_name                         0x000074e5   Thumb Code    50  finsh_token.o(i.token_match_name)
    i.token_next_char                        0x0000751c   Section        0  finsh_token.o(i.token_next_char)
    token_next_char                          0x0000751d   Thumb Code    64  finsh_token.o(i.token_next_char)
    i.token_prev_char                        0x0000755c   Section        0  finsh_token.o(i.token_prev_char)
    token_prev_char                          0x0000755d   Thumb Code    26  finsh_token.o(i.token_prev_char)
    i.token_proc_char                        0x00007576   Section        0  finsh_token.o(i.token_proc_char)
    token_proc_char                          0x00007577   Thumb Code   162  finsh_token.o(i.token_proc_char)
    i.token_proc_escape                      0x00007618   Section        0  finsh_token.o(i.token_proc_escape)
    token_proc_escape                        0x00007619   Thumb Code   218  finsh_token.o(i.token_proc_escape)
    i.token_proc_number                      0x000076f2   Section        0  finsh_token.o(i.token_proc_number)
    token_proc_number                        0x000076f3   Thumb Code   288  finsh_token.o(i.token_proc_number)
    i.token_proc_string                      0x00007812   Section        0  finsh_token.o(i.token_proc_string)
    token_proc_string                        0x00007813   Thumb Code    82  finsh_token.o(i.token_proc_string)
    i.token_run                              0x00007864   Section        0  finsh_token.o(i.token_run)
    token_run                                0x00007865   Thumb Code   418  finsh_token.o(i.token_run)
    i.token_spec_number                      0x00007a06   Section        0  finsh_token.o(i.token_spec_number)
    token_spec_number                        0x00007a07   Thumb Code   156  finsh_token.o(i.token_spec_number)
    i.token_trim_space                       0x00007aa2   Section        0  finsh_token.o(i.token_trim_space)
    token_trim_space                         0x00007aa3   Thumb Code    34  finsh_token.o(i.token_trim_space)
    i.version                                0x00007ac4   Section        0  cmd.o(i.version)
    .constdata                               0x00007ad0   Section       32  system_m051series.o(.constdata)
    .constdata                               0x00007af0   Section       48  uart.o(.constdata)
    .constdata                               0x00007b20   Section      290  kservice.o(.constdata)
    small_digits                             0x00007c20   Data          17  kservice.o(.constdata)
    large_digits                             0x00007c31   Data          17  kservice.o(.constdata)
    .constdata                               0x00007c44   Section       80  cmd.o(.constdata)
    .constdata                               0x00007c94   Section      196  finsh_ops.o(.constdata)
    .constdata                               0x00007d58   Section       64  finsh_token.o(.constdata)
    finsh_name_table                         0x00007d58   Data          64  finsh_token.o(.constdata)
    .constdata                               0x00007d98   Section      129  ctype_o.o(.constdata)
    .constdata                               0x00007e1c   Section        4  ctype_o.o(.constdata)
    table                                    0x00007e1c   Data           4  ctype_o.o(.constdata)
    .conststring                             0x00007e20   Section      349  cmd.o(.conststring)
    .conststring                             0x00007f80   Section      243  finsh_error.o(.conststring)
    .conststring                             0x00008074   Section       62  finsh_token.o(.conststring)
    .rodata.name                             0x000080b2   Section       39  mem.o(.rodata.name)
    .rodata.name                             0x000080d9   Section      251  cmd.o(.rodata.name)
    .rti_fn.0                                0x000081d4   Section        4  components.o(.rti_fn.0)
    .rti_fn.0.end                            0x000081d8   Section        4  components.o(.rti_fn.0.end)
    .rti_fn.1.end                            0x000081dc   Section        4  components.o(.rti_fn.1.end)
    .rti_fn.2                                0x000081e0   Section        4  led.o(.rti_fn.2)
    .rti_fn.3                                0x000081e4   Section        4  shell.o(.rti_fn.3)
    .rti_fn.6.end                            0x000081e8   Section        4  components.o(.rti_fn.6.end)
    FSymTab                                  0x000081ec   Section       12  mem.o(FSymTab)
    FSymTab                                  0x000081f8   Section       84  cmd.o(FSymTab)
    VSymTab                                  0x0000826c   Section       16  cmd.o(VSymTab)
    .data                                    0x20000000   Section        8  startup.o(.data)
    tid1                                     0x20000000   Data           4  startup.o(.data)
    tid2                                     0x20000004   Data           4  startup.o(.data)
    .data                                    0x20000008   Section       12  system_m051series.o(.data)
    .data                                    0x20000014   Section        4  clock.o(.data)
    rt_tick                                  0x20000014   Data           4  clock.o(.data)
    .data                                    0x20000018   Section        1  irq.o(.data)
    .data                                    0x2000001c   Section        8  kservice.o(.data)
    _errno                                   0x2000001c   Data           4  kservice.o(.data)
    _console_device                          0x20000020   Data           4  kservice.o(.data)
    .data                                    0x20000024   Section       24  mem.o(.data)
    heap_ptr                                 0x20000024   Data           4  mem.o(.data)
    heap_end                                 0x20000028   Data           4  mem.o(.data)
    lfree                                    0x2000002c   Data           4  mem.o(.data)
    mem_size_aligned                         0x20000030   Data           4  mem.o(.data)
    used_mem                                 0x20000034   Data           4  mem.o(.data)
    max_mem                                  0x20000038   Data           4  mem.o(.data)
    .data                                    0x2000003c   Section       64  object.o(.data)
    .data                                    0x2000007c   Section       24  scheduler.o(.data)
    rt_scheduler_lock_nest                   0x2000007c   Data           2  scheduler.o(.data)
    .data                                    0x20000094   Section       20  src_timer.o(.data)
    rt_timer_list                            0x20000094   Data           8  src_timer.o(.data)
    rt_soft_timer_list                       0x2000009c   Data           8  src_timer.o(.data)
    random_nr                                0x200000a4   Data           4  src_timer.o(.data)
    .data                                    0x200000a8   Section       12  cpuport.o(.data)
    .data                                    0x200000b4   Section        4  shell.o(.data)
    .data                                    0x200000b8   Section       16  symbol.o(.data)
    .data                                    0x200000c8   Section        4  cmd.o(.data)
    dummy                                    0x200000c8   Data           4  cmd.o(.data)
    .data                                    0x200000cc   Section        8  finsh_compiler.o(.data)
    .data                                    0x200000d4   Section       64  finsh_error.o(.data)
    finsh_error_string_table                 0x200000d8   Data          60  finsh_error.o(.data)
    .data                                    0x20000114   Section        8  finsh_heap.o(.data)
    free_list                                0x20000114   Data           4  finsh_heap.o(.data)
    allocate_list                            0x20000118   Data           4  finsh_heap.o(.data)
    .data                                    0x2000011c   Section        4  finsh_var.o(.data)
    .data                                    0x20000120   Section       12  finsh_vm.o(.data)
    .data                                    0x2000012c   Section        4  stdout.o(.data)
    .data                                    0x20000130   Section        4  errno.o(.data)
    _errno                                   0x20000130   Data           4  errno.o(.data)
    .bss                                     0x20000134   Section       84  usart.o(.bss)
    .bss                                     0x20000188   Section      248  idle.o(.bss)
    idle                                     0x20000188   Data         120  idle.o(.bss)
    rt_thread_stack                          0x20000200   Data         128  idle.o(.bss)
    .bss                                     0x20000280   Section       64  kservice.o(.bss)
    rt_log_buf                               0x20000280   Data          64  kservice.o(.bss)
    .bss                                     0x200002c0   Section       32  mem.o(.bss)
    heap_sem                                 0x200002c0   Data          32  mem.o(.bss)
    .bss                                     0x200002e0   Section      256  scheduler.o(.bss)
    .bss                                     0x200003e0   Section      632  src_timer.o(.bss)
    timer_thread                             0x200003e0   Data         120  src_timer.o(.bss)
    timer_thread_stack                       0x20000458   Data         512  src_timer.o(.bss)
    .bss                                     0x20000658   Section      632  shell.o(.bss)
    finsh_thread                             0x20000658   Data         120  shell.o(.bss)
    finsh_thread_stack                       0x200006d0   Data         512  shell.o(.bss)
    .bss                                     0x200008d0   Section      128  finsh_heap.o(.bss)
    .bss                                     0x20000950   Section      320  finsh_node.o(.bss)
    .bss                                     0x20000a90   Section      192  finsh_var.o(.bss)
    .bss                                     0x20000b50   Section      384  finsh_vm.o(.bss)
    STACK                                    0x20000cd0   Section      256  startup_m051series.o(STACK)

    Global Symbols

    Symbol Name                              Value     Ov Type        Size  Object(Section)

    BuildAttributes$$THM_ISAv3M$S$PE$A:L22$X:L11$S22$IEEE1$IW$USESV6$~STKCKD$USESV7$~SHL$OSPACE$ROPI$EBA8$MICROLIB$REQ8$PRES8$EABIv2 0x00000000   Number         0  anon$$obj.o ABSOLUTE
    __ARM_use_no_argv                        0x00000000   Number         0  startup.o ABSOLUTE
    __Vectors                                0x00000000   Data           4  startup_m051series.o(RESET)
    _printf_a                                0x00000000   Number         0  stubs.o ABSOLUTE
    _printf_c                                0x00000000   Number         0  stubs.o ABSOLUTE
    _printf_charcount                        0x00000000   Number         0  stubs.o ABSOLUTE
    _printf_d                                0x00000000   Number         0  stubs.o ABSOLUTE
    _printf_e                                0x00000000   Number         0  stubs.o ABSOLUTE
    _printf_f                                0x00000000   Number         0  stubs.o ABSOLUTE
    _printf_flags                            0x00000000   Number         0  stubs.o ABSOLUTE
    _printf_fp_dec                           0x00000000   Number         0  stubs.o ABSOLUTE
    _printf_fp_hex                           0x00000000   Number         0  stubs.o ABSOLUTE
    _printf_g                                0x00000000   Number         0  stubs.o ABSOLUTE
    _printf_i                                0x00000000   Number         0  stubs.o ABSOLUTE
    _printf_int_dec                          0x00000000   Number         0  stubs.o ABSOLUTE
    _printf_l                                0x00000000   Number         0  stubs.o ABSOLUTE
    _printf_lc                               0x00000000   Number         0  stubs.o ABSOLUTE
    _printf_ll                               0x00000000   Number         0  stubs.o ABSOLUTE
    _printf_lld                              0x00000000   Number         0  stubs.o ABSOLUTE
    _printf_lli                              0x00000000   Number         0  stubs.o ABSOLUTE
    _printf_llo                              0x00000000   Number         0  stubs.o ABSOLUTE
    _printf_llu                              0x00000000   Number         0  stubs.o ABSOLUTE
    _printf_llx                              0x00000000   Number         0  stubs.o ABSOLUTE
    _printf_longlong_dec                     0x00000000   Number         0  stubs.o ABSOLUTE
    _printf_longlong_hex                     0x00000000   Number         0  stubs.o ABSOLUTE
    _printf_longlong_oct                     0x00000000   Number         0  stubs.o ABSOLUTE
    _printf_ls                               0x00000000   Number         0  stubs.o ABSOLUTE
    _printf_mbtowc                           0x00000000   Number         0  stubs.o ABSOLUTE
    _printf_n                                0x00000000   Number         0  stubs.o ABSOLUTE
    _printf_o                                0x00000000   Number         0  stubs.o ABSOLUTE
    _printf_p                                0x00000000   Number         0  stubs.o ABSOLUTE
    _printf_percent                          0x00000000   Number         0  stubs.o ABSOLUTE
    _printf_pre_padding                      0x00000000   Number         0  stubs.o ABSOLUTE
    _printf_return_value                     0x00000000   Number         0  stubs.o ABSOLUTE
    _printf_s                                0x00000000   Number         0  stubs.o ABSOLUTE
    _printf_sizespec                         0x00000000   Number         0  stubs.o ABSOLUTE
    _printf_str                              0x00000000   Number         0  stubs.o ABSOLUTE
    _printf_truncate_signed                  0x00000000   Number         0  stubs.o ABSOLUTE
    _printf_truncate_unsigned                0x00000000   Number         0  stubs.o ABSOLUTE
    _printf_u                                0x00000000   Number         0  stubs.o ABSOLUTE
    _printf_wc                               0x00000000   Number         0  stubs.o ABSOLUTE
    _printf_wctomb                           0x00000000   Number         0  stubs.o ABSOLUTE
    _printf_widthprec                        0x00000000   Number         0  stubs.o ABSOLUTE
    _printf_x                                0x00000000   Number         0  stubs.o ABSOLUTE
    __cpp_initialize__aeabi_                  - Undefined Weak Reference
    __cxa_finalize                            - Undefined Weak Reference
    _clock_init                               - Undefined Weak Reference
    _microlib_exit                            - Undefined Weak Reference
    __main                                   0x000000c1   Thumb Code     0  entry.o(.ARM.Collect$$$$00000000)
    _main_stk                                0x000000c1   Thumb Code     0  entry2.o(.ARM.Collect$$$$00000001)
    _main_scatterload                        0x000000c5   Thumb Code     0  entry5.o(.ARM.Collect$$$$00000004)
    __main_after_scatterload                 0x000000c9   Thumb Code     0  entry5.o(.ARM.Collect$$$$00000004)
    _main_clock                              0x000000c9   Thumb Code     0  entry7b.o(.ARM.Collect$$$$00000008)
    _main_cpp_init                           0x000000c9   Thumb Code     0  entry8b.o(.ARM.Collect$$$$0000000A)
    _main_init                               0x000000c9   Thumb Code     0  entry9a.o(.ARM.Collect$$$$0000000B)
    __rt_final_cpp                           0x000000d1   Thumb Code     0  entry10a.o(.ARM.Collect$$$$0000000D)
    __rt_final_exit                          0x000000d1   Thumb Code     0  entry11a.o(.ARM.Collect$$$$0000000F)
    Reset_Handler                            0x000000d5   Thumb Code    32  startup_m051series.o(.text)
    NMI_Handler                              0x000000f5   Thumb Code     2  startup_m051series.o(.text)
    SVC_Handler                              0x000000f9   Thumb Code     2  startup_m051series.o(.text)
    ACMP01_IRQHandler                        0x000000ff   Thumb Code     0  startup_m051series.o(.text)
    ACMP23_IRQHandler                        0x000000ff   Thumb Code     0  startup_m051series.o(.text)
    ADC_IRQHandler                           0x000000ff   Thumb Code     0  startup_m051series.o(.text)
    BOD_IRQHandler                           0x000000ff   Thumb Code     0  startup_m051series.o(.text)
    EINT0_IRQHandler                         0x000000ff   Thumb Code     0  startup_m051series.o(.text)
    EINT1_IRQHandler                         0x000000ff   Thumb Code     0  startup_m051series.o(.text)
    GPIOP0P1_IRQHandler                      0x000000ff   Thumb Code     0  startup_m051series.o(.text)
    GPIOP2P3P4_IRQHandler                    0x000000ff   Thumb Code     0  startup_m051series.o(.text)
    I2C0_IRQHandler                          0x000000ff   Thumb Code     0  startup_m051series.o(.text)
    I2C1_IRQHandler                          0x000000ff   Thumb Code     0  startup_m051series.o(.text)
    PWMA_IRQHandler                          0x000000ff   Thumb Code     0  startup_m051series.o(.text)
    PWMB_IRQHandler                          0x000000ff   Thumb Code     0  startup_m051series.o(.text)
    PWRWU_IRQHandler                         0x000000ff   Thumb Code     0  startup_m051series.o(.text)
    RTC_IRQHandler                           0x000000ff   Thumb Code     0  startup_m051series.o(.text)
    SPI0_IRQHandler                          0x000000ff   Thumb Code     0  startup_m051series.o(.text)
    SPI1_IRQHandler                          0x000000ff   Thumb Code     0  startup_m051series.o(.text)
    TMR0_IRQHandler                          0x000000ff   Thumb Code     0  startup_m051series.o(.text)
    TMR1_IRQHandler                          0x000000ff   Thumb Code     0  startup_m051series.o(.text)
    TMR2_IRQHandler                          0x000000ff   Thumb Code     0  startup_m051series.o(.text)
    TMR3_IRQHandler                          0x000000ff   Thumb Code     0  startup_m051series.o(.text)
    UART1_IRQHandler                         0x000000ff   Thumb Code     0  startup_m051series.o(.text)
    WDT_IRQHandler                           0x000000ff   Thumb Code     0  startup_m051series.o(.text)
    rt_hw_interrupt_disable                  0x00000121   Thumb Code     8  context_rvds.o(.text)
    rt_hw_interrupt_enable                   0x00000129   Thumb Code     6  context_rvds.o(.text)
    rt_hw_context_switch                     0x0000012f   Thumb Code    28  context_rvds.o(.text)
    rt_hw_context_switch_interrupt           0x0000012f   Thumb Code     0  context_rvds.o(.text)
    PendSV_Handler                           0x0000014b   Thumb Code    84  context_rvds.o(.text)
    rt_hw_context_switch_to                  0x0000019f   Thumb Code    44  context_rvds.o(.text)
    rt_hw_interrupt_thread_switch            0x000001cb   Thumb Code     2  context_rvds.o(.text)
    HardFault_Handler                        0x000001cd   Thumb Code    12  context_rvds.o(.text)
    __aeabi_uidiv                            0x000001f9   Thumb Code     0  uidiv.o(.text)
    __aeabi_uidivmod                         0x000001f9   Thumb Code    44  uidiv.o(.text)
    __aeabi_idiv                             0x00000225   Thumb Code     0  idiv.o(.text)
    __aeabi_idivmod                          0x00000225   Thumb Code    40  idiv.o(.text)
    __aeabi_memcpy                           0x0000024d   Thumb Code    36  memcpya.o(.text)
    __aeabi_memcpy4                          0x0000024d   Thumb Code     0  memcpya.o(.text)
    __aeabi_memcpy8                          0x0000024d   Thumb Code     0  memcpya.o(.text)
    __aeabi_memset                           0x00000271   Thumb Code    14  memseta.o(.text)
    __aeabi_memset4                          0x00000271   Thumb Code     0  memseta.o(.text)
    __aeabi_memset8                          0x00000271   Thumb Code     0  memseta.o(.text)
    __aeabi_memclr                           0x0000027f   Thumb Code     4  memseta.o(.text)
    __aeabi_memclr4                          0x0000027f   Thumb Code     0  memseta.o(.text)
    __aeabi_memclr8                          0x0000027f   Thumb Code     0  memseta.o(.text)
    _memset$wrapper                          0x00000283   Thumb Code    18  memseta.o(.text)
    strncpy                                  0x00000295   Thumb Code    26  strncpy.o(.text)
    strlen                                   0x000002af   Thumb Code    14  strlen.o(.text)
    strcmp                                   0x000002bd   Thumb Code    28  strcmp.o(.text)
    strncmp                                  0x000002d9   Thumb Code    30  strncmp.o(.text)
    atoi                                     0x000002f7   Thumb Code    26  atoi.o(.text)
    strtol                                   0x00000311   Thumb Code   108  strtol.o(.text)
    __scatterload                            0x00000381   Thumb Code    28  init.o(.text)
    __scatterload_rt2                        0x00000381   Thumb Code     0  init.o(.text)
    __rt_ctype_table                         0x000003a5   Thumb Code     4  ctype_o.o(.text)
    _strtoul                                 0x000003ad   Thumb Code   166  _strtoul.o(.text)
    _chval                                   0x00000453   Thumb Code    30  _chval.o(.text)
    __decompress                             0x00000471   Thumb Code     0  __dczerorl2.o(.text)
    __decompress1                            0x00000471   Thumb Code    86  __dczerorl2.o(.text)
    CLK_EnableModuleClock                    0x000004c9   Thumb Code    32  clk.o(i.CLK_EnableModuleClock)
    CLK_EnablePLL                            0x000004ed   Thumb Code   258  clk.o(i.CLK_EnablePLL)
    CLK_EnableXtalRC                         0x00000615   Thumb Code    12  clk.o(i.CLK_EnableXtalRC)
    CLK_SetCoreClock                         0x000007a5   Thumb Code    70  clk.o(i.CLK_SetCoreClock)
    CLK_SetHCLK                              0x000007f9   Thumb Code    38  clk.o(i.CLK_SetHCLK)
    CLK_SetModuleClock                       0x00000825   Thumb Code    94  clk.o(i.CLK_SetModuleClock)
    CLK_WaitClockReady                       0x00000889   Thumb Code    28  clk.o(i.CLK_WaitClockReady)
    GPIO_SetMode                             0x000008ad   Thumb Code    46  gpio.o(i.GPIO_SetMode)
    OP_add_byte                              0x00000955   Thumb Code    44  finsh_ops.o(i.OP_add_byte)
    OP_add_dword                             0x00000985   Thumb Code    42  finsh_ops.o(i.OP_add_dword)
    OP_add_word                              0x000009b5   Thumb Code    44  finsh_ops.o(i.OP_add_word)
    OP_and_byte                              0x000009e5   Thumb Code    42  finsh_ops.o(i.OP_and_byte)
    OP_and_dword                             0x00000a15   Thumb Code    42  finsh_ops.o(i.OP_and_dword)
    OP_and_word                              0x00000a45   Thumb Code    46  finsh_ops.o(i.OP_and_word)
    OP_bw_byte                               0x00000a79   Thumb Code    22  finsh_ops.o(i.OP_bw_byte)
    OP_bw_dword                              0x00000a95   Thumb Code    20  finsh_ops.o(i.OP_bw_dword)
    OP_bw_word                               0x00000aad   Thumb Code    22  finsh_ops.o(i.OP_bw_word)
    OP_call                                  0x00000ac9   Thumb Code   898  finsh_ops.o(i.OP_call)
    OP_div_byte                              0x00000e55   Thumb Code    48  finsh_ops.o(i.OP_div_byte)
    OP_div_dword                             0x00000e89   Thumb Code    46  finsh_ops.o(i.OP_div_dword)
    OP_div_word                              0x00000ebd   Thumb Code    52  finsh_ops.o(i.OP_div_word)
    OP_ld_byte                               0x00000ef5   Thumb Code    34  finsh_ops.o(i.OP_ld_byte)
    OP_ld_dword                              0x00000f21   Thumb Code    64  finsh_ops.o(i.OP_ld_dword)
    OP_ld_value_byte                         0x00000f69   Thumb Code    68  finsh_ops.o(i.OP_ld_value_byte)
    OP_ld_value_byte_stack                   0x00000fb5   Thumb Code    20  finsh_ops.o(i.OP_ld_value_byte_stack)
    OP_ld_value_dword                        0x00000fcd   Thumb Code    68  finsh_ops.o(i.OP_ld_value_dword)
    OP_ld_value_dword_stack                  0x00001019   Thumb Code    20  finsh_ops.o(i.OP_ld_value_dword_stack)
    OP_ld_value_word                         0x00001031   Thumb Code    68  finsh_ops.o(i.OP_ld_value_word)
    OP_ld_value_word_stack                   0x0000107d   Thumb Code    20  finsh_ops.o(i.OP_ld_value_word_stack)
    OP_ld_word                               0x00001095   Thumb Code    46  finsh_ops.o(i.OP_ld_word)
    OP_mod_byte                              0x000010cd   Thumb Code    46  finsh_ops.o(i.OP_mod_byte)
    OP_mod_dword                             0x00001101   Thumb Code    46  finsh_ops.o(i.OP_mod_dword)
    OP_mod_word                              0x00001135   Thumb Code    50  finsh_ops.o(i.OP_mod_word)
    OP_mul_byte                              0x0000116d   Thumb Code    44  finsh_ops.o(i.OP_mul_byte)
    OP_mul_dword                             0x0000119d   Thumb Code    42  finsh_ops.o(i.OP_mul_dword)
    OP_mul_word                              0x000011cd   Thumb Code    44  finsh_ops.o(i.OP_mul_word)
    OP_no_op                                 0x000011fd   Thumb Code     2  finsh_ops.o(i.OP_no_op)
    OP_or_byte                               0x00001201   Thumb Code    42  finsh_ops.o(i.OP_or_byte)
    OP_or_dword                              0x00001231   Thumb Code    42  finsh_ops.o(i.OP_or_dword)
    OP_or_word                               0x00001261   Thumb Code    46  finsh_ops.o(i.OP_or_word)
    OP_pop                                   0x00001295   Thumb Code    12  finsh_ops.o(i.OP_pop)
    OP_shl_byte                              0x000012a5   Thumb Code    44  finsh_ops.o(i.OP_shl_byte)
    OP_shl_dword                             0x000012d5   Thumb Code    42  finsh_ops.o(i.OP_shl_dword)
    OP_shl_word                              0x00001305   Thumb Code    44  finsh_ops.o(i.OP_shl_word)
    OP_shr_byte                              0x00001335   Thumb Code    42  finsh_ops.o(i.OP_shr_byte)
    OP_shr_dword                             0x00001365   Thumb Code    42  finsh_ops.o(i.OP_shr_dword)
    OP_shr_word                              0x00001395   Thumb Code    44  finsh_ops.o(i.OP_shr_word)
    OP_st_byte                               0x000013c5   Thumb Code    30  finsh_ops.o(i.OP_st_byte)
    OP_st_dword                              0x000013e9   Thumb Code    30  finsh_ops.o(i.OP_st_dword)
    OP_st_word                               0x0000140d   Thumb Code    30  finsh_ops.o(i.OP_st_word)
    OP_sub_byte                              0x00001431   Thumb Code    44  finsh_ops.o(i.OP_sub_byte)
    OP_sub_dword                             0x00001461   Thumb Code    42  finsh_ops.o(i.OP_sub_dword)
    OP_sub_word                              0x00001491   Thumb Code    44  finsh_ops.o(i.OP_sub_word)
    OP_xor_byte                              0x000014c1   Thumb Code    42  finsh_ops.o(i.OP_xor_byte)
    OP_xor_dword                             0x000014f1   Thumb Code    42  finsh_ops.o(i.OP_xor_dword)
    OP_xor_word                              0x00001521   Thumb Code    46  finsh_ops.o(i.OP_xor_word)
    SYS_ResetModule                          0x00001555   Thumb Code    46  sys.o(i.SYS_ResetModule)
    SendChar                                 0x00001589   Thumb Code    12  printf.o(i.SendChar)
    SendChar_ToUART                          0x00001595   Thumb Code    48  printf.o(i.SendChar_ToUART)
    SysTick_Handler                          0x000015c9   Thumb Code    16  board.o(i.SysTick_Handler)
    SystemCoreClockUpdate                    0x000015d9   Thumb Code    76  system_m051series.o(i.SystemCoreClockUpdate)
    SystemInit                               0x0000163d   Thumb Code   152  system_m051series.o(i.SystemInit)
    UART0_IRQHandler                         0x000016f1   Thumb Code    32  usart.o(i.UART0_IRQHandler)
    UART_Open                                0x00001719   Thumb Code   130  uart.o(i.UART_Open)
    __0printf$1                              0x000017ad   Thumb Code    24  printf1.o(i.__0printf$1)
    __1printf$1                              0x000017ad   Thumb Code     0  printf1.o(i.__0printf$1)
    __2printf                                0x000017ad   Thumb Code     0  printf1.o(i.__0printf$1)
    __ARM_common_switch8                     0x000017cd   Thumb Code    28  ebi.o(i.__ARM_common_switch8)
    __aeabi_errno_addr                       0x000017e9   Thumb Code     4  errno.o(i.__aeabi_errno_addr)
    __rt_errno_addr                          0x000017e9   Thumb Code     0  errno.o(i.__aeabi_errno_addr)
    __rt_ffs                                 0x000017f1   Thumb Code    86  kservice.o(i.__rt_ffs)
    __scatterload_copy                       0x0000184d   Thumb Code    14  handlers.o(i.__scatterload_copy)
    __scatterload_null                       0x0000185b   Thumb Code     2  handlers.o(i.__scatterload_null)
    __scatterload_zeroinit                   0x0000185d   Thumb Code    14  handlers.o(i.__scatterload_zeroinit)
    finsh_compiler_run                       0x0000371d   Thumb Code    90  finsh_compiler.o(i.finsh_compiler_run)
    finsh_errno                              0x00003789   Thumb Code     6  finsh_error.o(i.finsh_errno)
    finsh_error_init                         0x00003795   Thumb Code     8  finsh_error.o(i.finsh_error_init)
    finsh_error_set                          0x000037a1   Thumb Code    10  finsh_error.o(i.finsh_error_set)
    finsh_error_string                       0x000037b1   Thumb Code    10  finsh_error.o(i.finsh_error_string)
    finsh_flush                              0x000037c1   Thumb Code    22  finsh_init.o(i.finsh_flush)
    finsh_heap_allocate                      0x000037d9   Thumb Code   114  finsh_heap.o(i.finsh_heap_allocate)
    finsh_heap_free                          0x00003855   Thumb Code    34  finsh_heap.o(i.finsh_heap_free)
    finsh_heap_init                          0x000038d5   Thumb Code    36  finsh_heap.o(i.finsh_heap_init)
    finsh_init                               0x00003905   Thumb Code    30  finsh_init.o(i.finsh_init)
    finsh_node_allocate                      0x00003925   Thumb Code    52  finsh_node.o(i.finsh_node_allocate)
    finsh_node_init                          0x0000395d   Thumb Code    16  finsh_node.o(i.finsh_node_init)
    finsh_node_new_char                      0x00003971   Thumb Code    32  finsh_node.o(i.finsh_node_new_char)
    finsh_node_new_id                        0x00003991   Thumb Code   124  finsh_node.o(i.finsh_node_new_id)
    finsh_node_new_int                       0x00003a0d   Thumb Code    32  finsh_node.o(i.finsh_node_new_int)
    finsh_node_new_long                      0x00003a2d   Thumb Code    32  finsh_node.o(i.finsh_node_new_long)
    finsh_node_new_ptr                       0x00003a4d   Thumb Code    32  finsh_node.o(i.finsh_node_new_ptr)
    finsh_node_new_string                    0x00003a6d   Thumb Code    76  finsh_node.o(i.finsh_node_new_string)
    finsh_parser_init                        0x00003ab9   Thumb Code    16  finsh_parser.o(i.finsh_parser_init)
    finsh_parser_run                         0x00003ac9   Thumb Code   230  finsh_parser.o(i.finsh_parser_run)
    finsh_run_line                           0x00003bb1   Thumb Code   166  shell.o(i.finsh_run_line)
    finsh_stack_bottom                       0x00003ca1   Thumb Code     6  finsh_init.o(i.finsh_stack_bottom)
    finsh_syscall_lookup                     0x00003cad   Thumb Code    78  finsh_vm.o(i.finsh_syscall_lookup)
    finsh_system_function_init               0x00003d09   Thumb Code    10  shell.o(i.finsh_system_function_init)
    finsh_system_init                        0x00003d1d   Thumb Code   124  shell.o(i.finsh_system_init)
    finsh_system_var_init                    0x00003de1   Thumb Code    10  shell.o(i.finsh_system_var_init)
    finsh_sysvar_lookup                      0x00003df5   Thumb Code    78  finsh_var.o(i.finsh_sysvar_lookup)
    finsh_thread_entry                       0x00003e51   Thumb Code  1324  shell.o(i.finsh_thread_entry)
    finsh_token_init                         0x0000438d   Thumb Code    20  finsh_token.o(i.finsh_token_init)
    finsh_token_token                        0x000043a1   Thumb Code    26  finsh_token.o(i.finsh_token_token)
    finsh_var_init                           0x00004525   Thumb Code    14  finsh_var.o(i.finsh_var_init)
    finsh_var_insert                         0x00004539   Thumb Code   106  finsh_var.o(i.finsh_var_insert)
    finsh_var_lookup                         0x000045a9   Thumb Code    56  finsh_var.o(i.finsh_var_lookup)
    finsh_vm_run                             0x000045e5   Thumb Code    62  finsh_vm.o(i.finsh_vm_run)
    fputc                                    0x00004639   Thumb Code    16  printf.o(i.fputc)
    hello                                    0x00004649   Thumb Code    12  cmd.o(i.hello)
    list                                     0x00004669   Thumb Code   128  cmd.o(i.list)
    list_device                              0x00004745   Thumb Code    10  cmd.o(i.list_device)
    list_mem                                 0x00004755   Thumb Code    34  mem.o(i.list_mem)
    list_prefix                              0x000047cd   Thumb Code   474  cmd.o(i.list_prefix)
    list_sem                                 0x00004a05   Thumb Code    10  cmd.o(i.list_sem)
    list_thread                              0x00004a15   Thumb Code    10  cmd.o(i.list_thread)
    list_timer                               0x00004a25   Thumb Code    10  cmd.o(i.list_timer)
    main                                     0x00004a35   Thumb Code   294  startup.o(i.main)
    rt_application_init                      0x000056a5   Thumb Code   106  startup.o(i.rt_application_init)
    rt_completion_done                       0x00005725   Thumb Code    74  completion.o(i.rt_completion_done)
    rt_components_board_init                 0x00005771   Thumb Code    20  components.o(i.rt_components_board_init)
    rt_console_get_device                    0x0000578d   Thumb Code     6  kservice.o(i.rt_console_get_device)
    rt_console_set_device                    0x00005799   Thumb Code    52  kservice.o(i.rt_console_set_device)
    rt_data_queue_peak                       0x000057d1   Thumb Code    78  dataqueue.o(i.rt_data_queue_peak)
    rt_data_queue_pop                        0x0000581f   Thumb Code   260  dataqueue.o(i.rt_data_queue_pop)
    rt_device_close                          0x00005923   Thumb Code    64  device.o(i.rt_device_close)
    rt_device_find                           0x00005965   Thumb Code    80  device.o(i.rt_device_find)
    rt_device_open                           0x000059b9   Thumb Code   124  device.o(i.rt_device_open)
    rt_device_read                           0x00005a6d   Thumb Code    60  device.o(i.rt_device_read)
    rt_device_set_rx_indicate                0x00005aa9   Thumb Code     8  device.o(i.rt_device_set_rx_indicate)
    rt_device_write                          0x00005ab1   Thumb Code    60  device.o(i.rt_device_write)
    rt_enter_critical                        0x00005bb1   Thumb Code    28  scheduler.o(i.rt_enter_critical)
    rt_exit_critical                         0x00005bd1   Thumb Code    56  scheduler.o(i.rt_exit_critical)
    rt_free                                  0x00005c0d   Thumb Code   100  mem.o(i.rt_free)
    rt_hw_board_init                         0x00005c85   Thumb Code    64  board.o(i.rt_hw_board_init)
    rt_hw_console_output                     0x00005cd9   Thumb Code     2  kservice.o(i.rt_hw_console_output)
    rt_hw_hard_fault_exception               0x00005cdd   Thumb Code    84  cpuport.o(i.rt_hw_hard_fault_exception)
    rt_hw_led_init                           0x00005dd1   Thumb Code    16  led.o(i.rt_hw_led_init)
    rt_hw_serial_isr                         0x00005de5   Thumb Code   344  serial.o(i.rt_hw_serial_isr)
    rt_hw_stack_init                         0x00005f3d   Thumb Code    58  cpuport.o(i.rt_hw_stack_init)
    rt_interrupt_enter                       0x00005f7d   Thumb Code    26  irq.o(i.rt_interrupt_enter)
    rt_interrupt_get_nest                    0x00005f9d   Thumb Code     6  irq.o(i.rt_interrupt_get_nest)
    rt_interrupt_leave                       0x00005fa9   Thumb Code    26  irq.o(i.rt_interrupt_leave)
    rt_kprintf                               0x0000603d   Thumb Code   100  kservice.o(i.rt_kprintf)
    rt_malloc                                0x00006165   Thumb Code   334  mem.o(i.rt_malloc)
    rt_memmove                               0x000062d1   Thumb Code    66  kservice.o(i.rt_memmove)
    rt_memset                                0x00006313   Thumb Code    76  kservice.o(i.rt_memset)
    rt_object_allocate                       0x00006361   Thumb Code    68  object.o(i.rt_object_allocate)
    rt_object_delete                         0x000063a9   Thumb Code    32  object.o(i.rt_object_delete)
    rt_object_detach                         0x000063c9   Thumb Code    26  object.o(i.rt_object_detach)
    rt_object_init                           0x000063e5   Thumb Code    54  object.o(i.rt_object_init)
    rt_object_is_systemobject                0x00006421   Thumb Code    20  object.o(i.rt_object_is_systemobject)
    rt_schedule                              0x00006435   Thumb Code    98  scheduler.o(i.rt_schedule)
    rt_schedule_insert_thread                0x000064b1   Thumb Code    64  scheduler.o(i.rt_schedule_insert_thread)
    rt_schedule_remove_thread                0x000064f9   Thumb Code    78  scheduler.o(i.rt_schedule_remove_thread)
    rt_sem_init                              0x00006551   Thumb Code    34  ipc.o(i.rt_sem_init)
    rt_sem_release                           0x00006573   Thumb Code    68  ipc.o(i.rt_sem_release)
    rt_sem_take                              0x000065b7   Thumb Code   120  ipc.o(i.rt_sem_take)
    rt_set_errno                             0x00006631   Thumb Code    40  kservice.o(i.rt_set_errno)
    rt_show_version                          0x0000665d   Thumb Code    38  kservice.o(i.rt_show_version)
    rt_soft_timer_check                      0x0000670d   Thumb Code   122  src_timer.o(i.rt_soft_timer_check)
    rt_strlen                                0x00006791   Thumb Code    18  kservice.o(i.rt_strlen)
    rt_strncmp                               0x000067a3   Thumb Code    42  kservice.o(i.rt_strncmp)
    rt_strncpy                               0x000067cd   Thumb Code    56  kservice.o(i.rt_strncpy)
    rt_system_heap_init                      0x00006805   Thumb Code   154  mem.o(i.rt_system_heap_init)
    rt_system_scheduler_init                 0x000068f9   Thumb Code    52  scheduler.o(i.rt_system_scheduler_init)
    rt_system_scheduler_start                0x00006945   Thumb Code    36  scheduler.o(i.rt_system_scheduler_start)
    rt_system_timer_init                     0x00006975   Thumb Code    24  src_timer.o(i.rt_system_timer_init)
    rt_system_timer_thread_init              0x00006991   Thumb Code    58  src_timer.o(i.rt_system_timer_thread_init)
    rt_thread_create                         0x000069e5   Thumb Code    80  thread.o(i.rt_thread_create)
    rt_thread_delay                          0x00006a35   Thumb Code    12  thread.o(i.rt_thread_delay)
    rt_thread_exit                           0x00006a41   Thumb Code    78  thread.o(i.rt_thread_exit)
    rt_thread_idle_excute                    0x00006aa1   Thumb Code   118  idle.o(i.rt_thread_idle_excute)
    rt_thread_idle_init                      0x00006b1d   Thumb Code    38  idle.o(i.rt_thread_idle_init)
    rt_thread_init                           0x00006b59   Thumb Code    44  thread.o(i.rt_thread_init)
    rt_thread_resume                         0x00006b85   Thumb Code    56  thread.o(i.rt_thread_resume)
    rt_thread_self                           0x00006bbd   Thumb Code     6  thread.o(i.rt_thread_self)
    rt_thread_sleep                          0x00006bc9   Thumb Code    62  thread.o(i.rt_thread_sleep)
    rt_thread_startup                        0x00006c0d   Thumb Code    48  thread.o(i.rt_thread_startup)
    rt_thread_suspend                        0x00006c3d   Thumb Code    54  thread.o(i.rt_thread_suspend)
    rt_thread_timeout                        0x00006c73   Thumb Code    32  thread.o(i.rt_thread_timeout)
    rt_thread_yield                          0x00006cdd   Thumb Code    88  thread.o(i.rt_thread_yield)
    rt_tick_get                              0x00006d3d   Thumb Code     6  clock.o(i.rt_tick_get)
    rt_tick_increase                         0x00006d49   Thumb Code    44  clock.o(i.rt_tick_increase)
    rt_timer_check                           0x00006d79   Thumb Code   120  src_timer.o(i.rt_timer_check)
    rt_timer_control                         0x00006df9   Thumb Code    60  src_timer.o(i.rt_timer_control)
    rt_timer_detach                          0x00006e35   Thumb Code    32  src_timer.o(i.rt_timer_detach)
    rt_timer_init                            0x00006e55   Thumb Code    38  src_timer.o(i.rt_timer_init)
    rt_timer_start                           0x00006e99   Thumb Code   294  src_timer.o(i.rt_timer_start)
    rt_timer_stop                            0x00006fd5   Thumb Code    48  src_timer.o(i.rt_timer_stop)
    rt_vsnprintf                             0x00007005   Thumb Code   852  kservice.o(i.rt_vsnprintf)
    token_get_string                         0x0000746d   Thumb Code   118  finsh_token.o(i.token_get_string)
    version                                  0x00007ac5   Thumb Code    10  cmd.o(i.version)
    gau32ClkSrcTbl                           0x00007ad0   Data          32  system_m051series.o(.constdata)
    __lowest_bit_bitmap                      0x00007b20   Data         256  kservice.o(.constdata)
    op_table                                 0x00007c94   Data         196  finsh_ops.o(.constdata)
    __ctype_table                            0x00007d98   Data         129  ctype_o.o(.constdata)
    __fsym_list_mem_name                     0x000080b2   Data           9  mem.o(.rodata.name)
    __fsym_list_mem_desc                     0x000080bb   Data          30  mem.o(.rodata.name)
    __fsym_hello_name                        0x000080d9   Data           6  cmd.o(.rodata.name)
    __fsym_hello_desc                        0x000080df   Data          16  cmd.o(.rodata.name)
    __fsym_version_name                      0x000080ef   Data           8  cmd.o(.rodata.name)
    __fsym_version_desc                      0x000080f7   Data          35  cmd.o(.rodata.name)
    __fsym_list_thread_name                  0x0000811a   Data          12  cmd.o(.rodata.name)
    __fsym_list_thread_desc                  0x00008126   Data          12  cmd.o(.rodata.name)
    __fsym_list_sem_name                     0x00008132   Data           9  cmd.o(.rodata.name)
    __fsym_list_sem_desc                     0x0000813b   Data          25  cmd.o(.rodata.name)
    __fsym_list_timer_name                   0x00008154   Data          11  cmd.o(.rodata.name)
    __fsym_list_timer_desc                   0x0000815f   Data          21  cmd.o(.rodata.name)
    __fsym_list_device_name                  0x00008174   Data          12  cmd.o(.rodata.name)
    __fsym_list_device_desc                  0x00008180   Data          22  cmd.o(.rodata.name)
    __fsym_list_name                         0x00008196   Data           5  cmd.o(.rodata.name)
    __fsym_list_desc                         0x0000819b   Data          26  cmd.o(.rodata.name)
    __vsym_dummy_name                        0x000081b5   Data           6  cmd.o(.rodata.name)
    __vsym_dummy_desc                        0x000081bb   Data          25  cmd.o(.rodata.name)
    __rt_init_rti_start                      0x000081d4   Data           4  components.o(.rti_fn.0)
    __rt_init_rti_board_start                0x000081d8   Data           4  components.o(.rti_fn.0.end)
    __rt_init_rti_board_end                  0x000081dc   Data           4  components.o(.rti_fn.1.end)
    __rt_init_rt_hw_led_init                 0x000081e0   Data           4  led.o(.rti_fn.2)
    __rt_init_finsh_system_init              0x000081e4   Data           4  shell.o(.rti_fn.3)
    __rt_init_rti_end                        0x000081e8   Data           4  components.o(.rti_fn.6.end)
    FSymTab$$Base                            0x000081ec   Number         0  mem.o(FSymTab)
    __fsym_list_mem                          0x000081ec   Data          12  mem.o(FSymTab)
    __fsym_hello                             0x000081f8   Data          12  cmd.o(FSymTab)
    __fsym_version                           0x00008204   Data          12  cmd.o(FSymTab)
    __fsym_list_thread                       0x00008210   Data          12  cmd.o(FSymTab)
    __fsym_list_sem                          0x0000821c   Data          12  cmd.o(FSymTab)
    __fsym_list_timer                        0x00008228   Data          12  cmd.o(FSymTab)
    __fsym_list_device                       0x00008234   Data          12  cmd.o(FSymTab)
    __fsym_list                              0x00008240   Data          12  cmd.o(FSymTab)
    FSymTab$$Limit                           0x0000824c   Number         0  cmd.o(FSymTab)
    Region$$Table$$Base                      0x0000824c   Number         0  anon$$obj.o(Region$$Table)
    Region$$Table$$Limit                     0x0000826c   Number         0  anon$$obj.o(Region$$Table)
    VSymTab$$Base                            0x0000826c   Number         0  cmd.o(VSymTab)
    __vsym_dummy                             0x0000826c   Data          16  cmd.o(VSymTab)
    VSymTab$$Limit                           0x0000827c   Number         0  cmd.o(VSymTab)
    SystemCoreClock                          0x20000008   Data           4  system_m051series.o(.data)
    CyclesPerUs                              0x2000000c   Data           4  system_m051series.o(.data)
    PllClock                                 0x20000010   Data           4  system_m051series.o(.data)
    rt_interrupt_nest                        0x20000018   Data           1  irq.o(.data)
    rt_object_container                      0x2000003c   Data          64  object.o(.data)
    rt_current_thread                        0x20000080   Data           4  scheduler.o(.data)
    rt_current_priority                      0x20000084   Data           1  scheduler.o(.data)
    rt_thread_ready_priority_group           0x20000088   Data           4  scheduler.o(.data)
    rt_thread_defunct                        0x2000008c   Data           8  scheduler.o(.data)
    rt_interrupt_from_thread                 0x200000a8   Data           4  cpuport.o(.data)
    rt_interrupt_to_thread                   0x200000ac   Data           4  cpuport.o(.data)
    rt_thread_switch_interrupt_flag          0x200000b0   Data           4  cpuport.o(.data)
    shell                                    0x200000b4   Data           4  shell.o(.data)
    _syscall_table_begin                     0x200000b8   Data           4  symbol.o(.data)
    _syscall_table_end                       0x200000bc   Data           4  symbol.o(.data)
    _sysvar_table_begin                      0x200000c0   Data           4  symbol.o(.data)
    _sysvar_table_end                        0x200000c4   Data           4  symbol.o(.data)
    finsh_compile_sp                         0x200000cc   Data           4  finsh_compiler.o(.data)
    finsh_compile_pc                         0x200000d0   Data           4  finsh_compiler.o(.data)
    global_errno                             0x200000d4   Data           1  finsh_error.o(.data)
    global_sysvar_list                       0x2000011c   Data           4  finsh_var.o(.data)
    finsh_sp                                 0x20000120   Data           4  finsh_vm.o(.data)
    finsh_pc                                 0x20000124   Data           4  finsh_vm.o(.data)
    global_syscall_list                      0x20000128   Data           4  finsh_vm.o(.data)
    __stdout                                 0x2000012c   Data           4  stdout.o(.data)
    serial0                                  0x20000134   Data          84  usart.o(.bss)
    rt_thread_priority_table                 0x200002e0   Data         256  scheduler.o(.bss)
    finsh_heap                               0x200008d0   Data         128  finsh_heap.o(.bss)
    global_node_table                        0x20000950   Data         320  finsh_node.o(.bss)
    global_variable                          0x20000a90   Data         192  finsh_var.o(.bss)
    finsh_vm_stack                           0x20000b50   Data         256  finsh_vm.o(.bss)
    text_segment                             0x20000c50   Data         128  finsh_vm.o(.bss)
    Image$$RW_IRAM1$$ZI$$Limit               0x20000dd0   Number         0  anon$$obj.o ABSOLUTE
    __initial_sp                             0x20000dd0   Data           0  startup_m051series.o(STACK)



==============================================================================

Memory Map of the image

  Image entry point : Not specified.

  Load Region LR_IROM1 (Base: 0x00000000, Size: 0x000083b0, Max: 0x00010000, ABSOLUTE, COMPRESSED[0x000082dc])

    Execution Region ER_IROM1 (Base: 0x00000000, Size: 0x0000827c, Max: 0x00010000, ABSOLUTE)

    Base Addr    Size         Type   Attr      Idx    E Section Name        Object

    0x00000000   0x000000c0   Data   RO         1479    RESET               startup_m051series.o
    0x000000c0   0x00000000   Code   RO         3925  * .ARM.Collect$$$$00000000  mc_p.l(entry.o)
    0x000000c0   0x00000004   Code   RO         4209    .ARM.Collect$$$$00000001  mc_p.l(entry2.o)
    0x000000c4   0x00000004   Code   RO         4212    .ARM.Collect$$$$00000004  mc_p.l(entry5.o)
    0x000000c8   0x00000000   Code   RO         4214    .ARM.Collect$$$$00000008  mc_p.l(entry7b.o)
    0x000000c8   0x00000000   Code   RO         4216    .ARM.Collect$$$$0000000A  mc_p.l(entry8b.o)
    0x000000c8   0x00000008   Code   RO         4217    .ARM.Collect$$$$0000000B  mc_p.l(entry9a.o)
    0x000000d0   0x00000000   Code   RO         4219    .ARM.Collect$$$$0000000D  mc_p.l(entry10a.o)
    0x000000d0   0x00000000   Code   RO         4221    .ARM.Collect$$$$0000000F  mc_p.l(entry11a.o)
    0x000000d0   0x00000004   Code   RO         4210    .ARM.Collect$$$$00002712  mc_p.l(entry2.o)
    0x000000d4   0x0000004c   Code   RO         1480  * .text               startup_m051series.o
    0x00000120   0x000000d8   Code   RO         2391    .text               context_rvds.o
    0x000001f8   0x0000002c   Code   RO         3928    .text               mc_p.l(uidiv.o)
    0x00000224   0x00000028   Code   RO         3930    .text               mc_p.l(idiv.o)
    0x0000024c   0x00000024   Code   RO         3932    .text               mc_p.l(memcpya.o)
    0x00000270   0x00000024   Code   RO         3934    .text               mc_p.l(memseta.o)
    0x00000294   0x0000001a   Code   RO         3936    .text               mc_p.l(strncpy.o)
    0x000002ae   0x0000000e   Code   RO         3938    .text               mc_p.l(strlen.o)
    0x000002bc   0x0000001c   Code   RO         3940    .text               mc_p.l(strcmp.o)
    0x000002d8   0x0000001e   Code   RO         3942    .text               mc_p.l(strncmp.o)
    0x000002f6   0x0000001a   Code   RO         4207    .text               mc_p.l(atoi.o)
    0x00000310   0x00000070   Code   RO         4233    .text               mc_p.l(strtol.o)
    0x00000380   0x00000024   Code   RO         4246    .text               mc_p.l(init.o)
    0x000003a4   0x00000008   Code   RO         4254    .text               mc_p.l(ctype_o.o)
    0x000003ac   0x000000a6   Code   RO         4282    .text               mc_p.l(_strtoul.o)
    0x00000452   0x0000001e   Code   RO         4288    .text               mc_p.l(_chval.o)
    0x00000470   0x00000056   Code   RO         4298    .text               mc_p.l(__dczerorl2.o)
    0x000004c6   0x00000002   PAD
    0x000004c8   0x00000024   Code   RO          486    i.CLK_EnableModuleClock  clk.o
    0x000004ec   0x00000128   Code   RO          487    i.CLK_EnablePLL     clk.o
    0x00000614   0x00000010   Code   RO          488    i.CLK_EnableXtalRC  clk.o
    0x00000624   0x00000080   Code   RO          364    i.CLK_GetPLLClockFreq  system_m051series.o
    0x000006a4   0x00000080   Code   RO          492    i.CLK_GetPLLClockFreq  clk.o
    0x00000724   0x00000080   Code   RO         1322    i.CLK_GetPLLClockFreq  uart.o
    0x000007a4   0x00000054   Code   RO          495    i.CLK_SetCoreClock  clk.o
    0x000007f8   0x0000002c   Code   RO          496    i.CLK_SetHCLK       clk.o
    0x00000824   0x00000064   Code   RO          497    i.CLK_SetModuleClock  clk.o
    0x00000888   0x00000024   Code   RO          499    i.CLK_WaitClockReady  clk.o
    0x000008ac   0x0000002e   Code   RO          744    i.GPIO_SetMode      gpio.o
    0x000008da   0x00000002   PAD
    0x000008dc   0x00000078   Code   RO          149    i.NVIC_SetPriority  board.o
    0x00000954   0x00000030   Code   RO         3295    i.OP_add_byte       finsh_ops.o
    0x00000984   0x00000030   Code   RO         3296    i.OP_add_dword      finsh_ops.o
    0x000009b4   0x00000030   Code   RO         3297    i.OP_add_word       finsh_ops.o
    0x000009e4   0x00000030   Code   RO         3298    i.OP_and_byte       finsh_ops.o
    0x00000a14   0x00000030   Code   RO         3299    i.OP_and_dword      finsh_ops.o
    0x00000a44   0x00000034   Code   RO         3300    i.OP_and_word       finsh_ops.o
    0x00000a78   0x0000001c   Code   RO         3301    i.OP_bw_byte        finsh_ops.o
    0x00000a94   0x00000018   Code   RO         3302    i.OP_bw_dword       finsh_ops.o
    0x00000aac   0x0000001c   Code   RO         3303    i.OP_bw_word        finsh_ops.o
    0x00000ac8   0x0000038c   Code   RO         3304    i.OP_call           finsh_ops.o
    0x00000e54   0x00000034   Code   RO         3305    i.OP_div_byte       finsh_ops.o
    0x00000e88   0x00000034   Code   RO         3306    i.OP_div_dword      finsh_ops.o
    0x00000ebc   0x00000038   Code   RO         3307    i.OP_div_word       finsh_ops.o
    0x00000ef4   0x0000002c   Code   RO         3308    i.OP_ld_byte        finsh_ops.o
    0x00000f20   0x00000048   Code   RO         3309    i.OP_ld_dword       finsh_ops.o
    0x00000f68   0x0000004c   Code   RO         3310    i.OP_ld_value_byte  finsh_ops.o
    0x00000fb4   0x00000018   Code   RO         3311    i.OP_ld_value_byte_stack  finsh_ops.o
    0x00000fcc   0x0000004c   Code   RO         3312    i.OP_ld_value_dword  finsh_ops.o
    0x00001018   0x00000018   Code   RO         3313    i.OP_ld_value_dword_stack  finsh_ops.o
    0x00001030   0x0000004c   Code   RO         3314    i.OP_ld_value_word  finsh_ops.o
    0x0000107c   0x00000018   Code   RO         3315    i.OP_ld_value_word_stack  finsh_ops.o
    0x00001094   0x00000038   Code   RO         3316    i.OP_ld_word        finsh_ops.o
    0x000010cc   0x00000034   Code   RO         3317    i.OP_mod_byte       finsh_ops.o
    0x00001100   0x00000034   Code   RO         3318    i.OP_mod_dword      finsh_ops.o
    0x00001134   0x00000038   Code   RO         3319    i.OP_mod_word       finsh_ops.o
    0x0000116c   0x00000030   Code   RO         3320    i.OP_mul_byte       finsh_ops.o
    0x0000119c   0x00000030   Code   RO         3321    i.OP_mul_dword      finsh_ops.o
    0x000011cc   0x00000030   Code   RO         3322    i.OP_mul_word       finsh_ops.o
    0x000011fc   0x00000002   Code   RO         3323    i.OP_no_op          finsh_ops.o
    0x000011fe   0x00000002   PAD
    0x00001200   0x00000030   Code   RO         3324    i.OP_or_byte        finsh_ops.o
    0x00001230   0x00000030   Code   RO         3325    i.OP_or_dword       finsh_ops.o
    0x00001260   0x00000034   Code   RO         3326    i.OP_or_word        finsh_ops.o
    0x00001294   0x00000010   Code   RO         3327    i.OP_pop            finsh_ops.o
    0x000012a4   0x00000030   Code   RO         3328    i.OP_shl_byte       finsh_ops.o
    0x000012d4   0x00000030   Code   RO         3329    i.OP_shl_dword      finsh_ops.o
    0x00001304   0x00000030   Code   RO         3330    i.OP_shl_word       finsh_ops.o
    0x00001334   0x00000030   Code   RO         3331    i.OP_shr_byte       finsh_ops.o
    0x00001364   0x00000030   Code   RO         3332    i.OP_shr_dword      finsh_ops.o
    0x00001394   0x00000030   Code   RO         3333    i.OP_shr_word       finsh_ops.o
    0x000013c4   0x00000024   Code   RO         3334    i.OP_st_byte        finsh_ops.o
    0x000013e8   0x00000024   Code   RO         3335    i.OP_st_dword       finsh_ops.o
    0x0000140c   0x00000024   Code   RO         3336    i.OP_st_word        finsh_ops.o
    0x00001430   0x00000030   Code   RO         3337    i.OP_sub_byte       finsh_ops.o
    0x00001460   0x00000030   Code   RO         3338    i.OP_sub_dword      finsh_ops.o
    0x00001490   0x00000030   Code   RO         3339    i.OP_sub_word       finsh_ops.o
    0x000014c0   0x00000030   Code   RO         3340    i.OP_xor_byte       finsh_ops.o
    0x000014f0   0x00000030   Code   RO         3341    i.OP_xor_dword      finsh_ops.o
    0x00001520   0x00000034   Code   RO         3342    i.OP_xor_word       finsh_ops.o
    0x00001554   0x00000034   Code   RO         1194    i.SYS_ResetModule   sys.o
    0x00001588   0x0000000c   Code   RO          315    i.SendChar          printf.o
    0x00001594   0x00000034   Code   RO          316    i.SendChar_ToUART   printf.o
    0x000015c8   0x00000010   Code   RO          150    i.SysTick_Handler   board.o
    0x000015d8   0x00000064   Code   RO          365    i.SystemCoreClockUpdate  system_m051series.o
    0x0000163c   0x000000b4   Code   RO          366    i.SystemInit        system_m051series.o
    0x000016f0   0x00000028   Code   RO          259    i.UART0_IRQHandler  usart.o
    0x00001718   0x00000094   Code   RO         1331    i.UART_Open         uart.o
    0x000017ac   0x00000020   Code   RO         3991    i.__0printf$1       mc_p.l(printf1.o)
    0x000017cc   0x0000001c   Code   RO          635    i.__ARM_common_switch8  ebi.o
    0x000017e8   0x00000008   Code   RO         4226    i.__aeabi_errno_addr  mc_p.l(errno.o)
    0x000017f0   0x0000005c   Code   RO         1750    i.__rt_ffs          kservice.o
    0x0000184c   0x0000000e   Code   RO         4292    i.__scatterload_copy  mc_p.l(handlers.o)
    0x0000185a   0x00000002   Code   RO         4293    i.__scatterload_null  mc_p.l(handlers.o)
    0x0000185c   0x0000000e   Code   RO         4294    i.__scatterload_zeroinit  mc_p.l(handlers.o)
    0x0000186a   0x00000002   PAD
    0x0000186c   0x00000014   Code   RO         1601    i._has_defunct_thread  idle.o
    0x00001880   0x000000e8   Code   RO         2952    i._list_device      cmd.o
    0x00001968   0x000000f8   Code   RO         2953    i._list_sem         cmd.o
    0x00001a60   0x00000178   Code   RO         2954    i._list_thread      cmd.o
    0x00001bd8   0x00000110   Code   RO         2955    i._list_timer       cmd.o
    0x00001ce8   0x00000150   Code   RO         3998    i._printf_core      mc_p.l(printf1.o)
    0x00001e38   0x00000084   Code   RO         2135    i._rt_thread_init   thread.o
    0x00001ebc   0x0000003c   Code   RO         2250    i._rt_timer_init    src_timer.o
    0x00001ef8   0x0000002e   Code   RO         2251    i._rt_timer_remove  src_timer.o
    0x00001f26   0x00000044   Code   RO         3149    i.finsh_block_insert  finsh_heap.o
    0x00001f6a   0x00000082   Code   RO         3150    i.finsh_block_merge  finsh_heap.o
    0x00001fec   0x0000002e   Code   RO         3151    i.finsh_block_remove  finsh_heap.o
    0x0000201a   0x00000018   Code   RO         3152    i.finsh_block_split  finsh_heap.o
    0x00002032   0x00000002   PAD
    0x00002034   0x000016e8   Code   RO         3068    i.finsh_compile     finsh_compiler.o
    0x0000371c   0x0000006c   Code   RO         3069    i.finsh_compiler_run  finsh_compiler.o
    0x00003788   0x0000000c   Code   RO         3115    i.finsh_errno       finsh_error.o
    0x00003794   0x0000000c   Code   RO         3116    i.finsh_error_init  finsh_error.o
    0x000037a0   0x00000010   Code   RO         3117    i.finsh_error_set   finsh_error.o
    0x000037b0   0x00000010   Code   RO         3118    i.finsh_error_string  finsh_error.o
    0x000037c0   0x00000016   Code   RO         3202    i.finsh_flush       finsh_init.o
    0x000037d6   0x00000002   PAD
    0x000037d8   0x0000007c   Code   RO         3153    i.finsh_heap_allocate  finsh_heap.o
    0x00003854   0x0000002c   Code   RO         3154    i.finsh_heap_free   finsh_heap.o
    0x00003880   0x00000054   Code   RO         3155    i.finsh_heap_gc     finsh_heap.o
    0x000038d4   0x00000030   Code   RO         3156    i.finsh_heap_init   finsh_heap.o
    0x00003904   0x0000001e   Code   RO         3203    i.finsh_init        finsh_init.o
    0x00003922   0x00000002   PAD
    0x00003924   0x00000038   Code   RO         3238    i.finsh_node_allocate  finsh_node.o
    0x0000395c   0x00000014   Code   RO         3239    i.finsh_node_init   finsh_node.o
    0x00003970   0x00000020   Code   RO         3240    i.finsh_node_new_char  finsh_node.o
    0x00003990   0x0000007c   Code   RO         3241    i.finsh_node_new_id  finsh_node.o
    0x00003a0c   0x00000020   Code   RO         3242    i.finsh_node_new_int  finsh_node.o
    0x00003a2c   0x00000020   Code   RO         3243    i.finsh_node_new_long  finsh_node.o
    0x00003a4c   0x00000020   Code   RO         3244    i.finsh_node_new_ptr  finsh_node.o
    0x00003a6c   0x0000004c   Code   RO         3245    i.finsh_node_new_string  finsh_node.o
    0x00003ab8   0x00000010   Code   RO         3595    i.finsh_parser_init  finsh_parser.o
    0x00003ac8   0x000000e6   Code   RO         3596    i.finsh_parser_run  finsh_parser.o
    0x00003bae   0x00000002   PAD
    0x00003bb0   0x000000d8   Code   RO         2865    i.finsh_run_line    shell.o
    0x00003c88   0x00000018   Code   RO         2866    i.finsh_rx_ind      shell.o
    0x00003ca0   0x0000000c   Code   RO         3205    i.finsh_stack_bottom  finsh_init.o
    0x00003cac   0x0000005c   Code   RO         3760    i.finsh_syscall_lookup  finsh_vm.o
    0x00003d08   0x00000014   Code   RO         2869    i.finsh_system_function_init  shell.o
    0x00003d1c   0x000000c4   Code   RO         2870    i.finsh_system_init  shell.o
    0x00003de0   0x00000014   Code   RO         2871    i.finsh_system_var_init  shell.o
    0x00003df4   0x0000005c   Code   RO         3707    i.finsh_sysvar_lookup  finsh_var.o
    0x00003e50   0x0000053c   Code   RO         2872    i.finsh_thread_entry  shell.o
    0x0000438c   0x00000014   Code   RO         3799    i.finsh_token_init  finsh_token.o
    0x000043a0   0x0000001a   Code   RO         3800    i.finsh_token_token  finsh_token.o
    0x000043ba   0x0000016a   Code   RO         3070    i.finsh_type_check  finsh_compiler.o
    0x00004524   0x00000014   Code   RO         3709    i.finsh_var_init    finsh_var.o
    0x00004538   0x00000070   Code   RO         3710    i.finsh_var_insert  finsh_var.o
    0x000045a8   0x0000003c   Code   RO         3711    i.finsh_var_lookup  finsh_var.o
    0x000045e4   0x00000054   Code   RO         3761    i.finsh_vm_run      finsh_vm.o
    0x00004638   0x00000010   Code   RO          317    i.fputc             printf.o
    0x00004648   0x00000020   Code   RO         2956    i.hello             cmd.o
    0x00004668   0x000000dc   Code   RO         2957    i.list              cmd.o
    0x00004744   0x00000010   Code   RO         2958    i.list_device       cmd.o
    0x00004754   0x00000078   Code   RO         1939    i.list_mem          mem.o
    0x000047cc   0x00000238   Code   RO         2959    i.list_prefix       cmd.o
    0x00004a04   0x00000010   Code   RO         2960    i.list_sem          cmd.o
    0x00004a14   0x00000010   Code   RO         2961    i.list_thread       cmd.o
    0x00004a24   0x00000010   Code   RO         2962    i.list_timer        cmd.o
    0x00004a34   0x00000190   Code   RO            4    i.main              startup.o
    0x00004bc4   0x00000028   Code   RO         3597    i.make_sys_node     finsh_parser.o
    0x00004bec   0x0000003e   Code   RO         2963    i.object_name_maxlen  cmd.o
    0x00004c2a   0x00000002   PAD
    0x00004c2c   0x0000001c   Code   RO         2964    i.object_split      cmd.o
    0x00004c48   0x0000007c   Code   RO         1940    i.plug_holes        mem.o
    0x00004cc4   0x0000018c   Code   RO         1752    i.print_number      kservice.o
    0x00004e50   0x00000070   Code   RO         3598    i.proc_additive_expr  finsh_parser.o
    0x00004ec0   0x0000004a   Code   RO         3599    i.proc_and_expr     finsh_parser.o
    0x00004f0a   0x00000034   Code   RO         3600    i.proc_assign_expr  finsh_parser.o
    0x00004f3e   0x0000004c   Code   RO         3601    i.proc_cast_expr    finsh_parser.o
    0x00004f8a   0x0000004a   Code   RO         3602    i.proc_exclusive_or_expr  finsh_parser.o
    0x00004fd4   0x0000000c   Code   RO         3603    i.proc_expr         finsh_parser.o
    0x00004fe0   0x00000038   Code   RO         3604    i.proc_expr_statement  finsh_parser.o
    0x00005018   0x0000002c   Code   RO         3605    i.proc_identifier   finsh_parser.o
    0x00005044   0x0000004a   Code   RO         3606    i.proc_inclusive_or_expr  finsh_parser.o
    0x0000508e   0x00000088   Code   RO         3607    i.proc_multiplicative_expr  finsh_parser.o
    0x00005116   0x0000004a   Code   RO         3608    i.proc_param_list   finsh_parser.o
    0x00005160   0x0000009e   Code   RO         3609    i.proc_postfix_expr  finsh_parser.o
    0x000051fe   0x0000009e   Code   RO         3610    i.proc_primary_expr  finsh_parser.o
    0x0000529c   0x00000072   Code   RO         3611    i.proc_shift_expr   finsh_parser.o
    0x0000530e   0x000000fa   Code   RO         3612    i.proc_type         finsh_parser.o
    0x00005408   0x000000ba   Code   RO         3613    i.proc_unary_expr   finsh_parser.o
    0x000054c2   0x000001e2   Code   RO         3614    i.proc_variable_decl  finsh_parser.o
    0x000056a4   0x00000080   Code   RO            5    i.rt_application_init  startup.o
    0x00005724   0x0000004a   Code   RO         2506    i.rt_completion_done  completion.o
    0x0000576e   0x00000002   PAD
    0x00005770   0x0000001c   Code   RO         3881    i.rt_components_board_init  components.o
    0x0000578c   0x0000000c   Code   RO         1753    i.rt_console_get_device  kservice.o
    0x00005798   0x00000038   Code   RO         1754    i.rt_console_set_device  kservice.o
    0x000057d0   0x0000004e   Code   RO         2534    i.rt_data_queue_peak  dataqueue.o
    0x0000581e   0x00000104   Code   RO         2535    i.rt_data_queue_pop  dataqueue.o
    0x00005922   0x00000040   Code   RO         1522    i.rt_device_close   device.o
    0x00005962   0x00000002   PAD
    0x00005964   0x00000054   Code   RO         1524    i.rt_device_find    device.o
    0x000059b8   0x000000b4   Code   RO         1527    i.rt_device_open    device.o
    0x00005a6c   0x0000003c   Code   RO         1528    i.rt_device_read    device.o
    0x00005aa8   0x00000008   Code   RO         1530    i.rt_device_set_rx_indicate  device.o
    0x00005ab0   0x0000003c   Code   RO         1533    i.rt_device_write   device.o
    0x00005aec   0x0000003e   Code   RO         2431    i.rt_dma_calc_recved_len  serial.o
    0x00005b2a   0x00000084   Code   RO         2433    i.rt_dma_recv_update_put_index  serial.o
    0x00005bae   0x00000002   PAD
    0x00005bb0   0x00000020   Code   RO         2069    i.rt_enter_critical  scheduler.o
    0x00005bd0   0x0000003c   Code   RO         2070    i.rt_exit_critical  scheduler.o
    0x00005c0c   0x00000078   Code   RO         1942    i.rt_free           mem.o
    0x00005c84   0x00000054   Code   RO          152    i.rt_hw_board_init  board.o
    0x00005cd8   0x00000002   Code   RO         1757    i.rt_hw_console_output  kservice.o
    0x00005cda   0x00000002   PAD
    0x00005cdc   0x000000f4   Code   RO         2369    i.rt_hw_hard_fault_exception  cpuport.o
    0x00005dd0   0x00000014   Code   RO          218    i.rt_hw_led_init    led.o
    0x00005de4   0x00000158   Code   RO         2434    i.rt_hw_serial_isr  serial.o
    0x00005f3c   0x00000040   Code   RO         2370    i.rt_hw_stack_init  cpuport.o
    0x00005f7c   0x00000020   Code   RO         1723    i.rt_interrupt_enter  irq.o
    0x00005f9c   0x0000000c   Code   RO         1724    i.rt_interrupt_get_nest  irq.o
    0x00005fa8   0x00000020   Code   RO         1725    i.rt_interrupt_leave  irq.o
    0x00005fc8   0x00000062   Code   RO         1642    i.rt_ipc_list_suspend  ipc.o
    0x0000602a   0x00000010   Code   RO         1643    i.rt_ipc_object_init  ipc.o
    0x0000603a   0x00000002   PAD
    0x0000603c   0x0000006c   Code   RO         1758    i.rt_kprintf        kservice.o
    0x000060a8   0x00000006   Code   RO         2071    i.rt_list_init      scheduler.o
    0x000060ae   0x00000006   Code   RO         2252    i.rt_list_init      src_timer.o
    0x000060b4   0x0000000e   Code   RO         1998    i.rt_list_insert_after  object.o
    0x000060c2   0x0000000e   Code   RO         2136    i.rt_list_insert_after  thread.o
    0x000060d0   0x0000000e   Code   RO         2253    i.rt_list_insert_after  src_timer.o
    0x000060de   0x0000000e   Code   RO         1644    i.rt_list_insert_before  ipc.o
    0x000060ec   0x0000000e   Code   RO         2539    i.rt_list_insert_before  dataqueue.o
    0x000060fa   0x00000010   Code   RO         1645    i.rt_list_isempty   ipc.o
    0x0000610a   0x00000010   Code   RO         2254    i.rt_list_isempty   src_timer.o
    0x0000611a   0x00000010   Code   RO         2540    i.rt_list_isempty   dataqueue.o
    0x0000612a   0x00000014   Code   RO         2965    i.rt_list_len       cmd.o
    0x0000613e   0x00000012   Code   RO         1999    i.rt_list_remove    object.o
    0x00006150   0x00000012   Code   RO         2137    i.rt_list_remove    thread.o
    0x00006162   0x00000002   PAD
    0x00006164   0x0000016c   Code   RO         1943    i.rt_malloc         mem.o
    0x000062d0   0x00000042   Code   RO         1763    i.rt_memmove        kservice.o
    0x00006312   0x0000004c   Code   RO         1764    i.rt_memset         kservice.o
    0x0000635e   0x00000002   PAD
    0x00006360   0x00000048   Code   RO         2000    i.rt_object_allocate  object.o
    0x000063a8   0x00000020   Code   RO         2001    i.rt_object_delete  object.o
    0x000063c8   0x0000001a   Code   RO         2002    i.rt_object_detach  object.o
    0x000063e2   0x00000002   PAD
    0x000063e4   0x0000003c   Code   RO         2005    i.rt_object_init    object.o
    0x00006420   0x00000014   Code   RO         2006    i.rt_object_is_systemobject  object.o
    0x00006434   0x0000007c   Code   RO         2072    i.rt_schedule       scheduler.o
    0x000064b0   0x00000048   Code   RO         2073    i.rt_schedule_insert_thread  scheduler.o
    0x000064f8   0x00000058   Code   RO         2074    i.rt_schedule_remove_thread  scheduler.o
    0x00006550   0x00000022   Code   RO         1650    i.rt_sem_init       ipc.o
    0x00006572   0x00000044   Code   RO         1651    i.rt_sem_release    ipc.o
    0x000065b6   0x00000078   Code   RO         1652    i.rt_sem_take       ipc.o
    0x0000662e   0x00000002   PAD
    0x00006630   0x0000002c   Code   RO         1765    i.rt_set_errno      kservice.o
    0x0000665c   0x000000b0   Code   RO         1766    i.rt_show_version   kservice.o
    0x0000670c   0x00000084   Code   RO         2255    i.rt_soft_timer_check  src_timer.o
    0x00006790   0x00000012   Code   RO         1772    i.rt_strlen         kservice.o
    0x000067a2   0x0000002a   Code   RO         1773    i.rt_strncmp        kservice.o
    0x000067cc   0x00000038   Code   RO         1774    i.rt_strncpy        kservice.o
    0x00006804   0x000000f4   Code   RO         1946    i.rt_system_heap_init  mem.o
    0x000068f8   0x0000004c   Code   RO         2075    i.rt_system_scheduler_init  scheduler.o
    0x00006944   0x00000030   Code   RO         2076    i.rt_system_scheduler_start  scheduler.o
    0x00006974   0x0000001c   Code   RO         2256    i.rt_system_timer_init  src_timer.o
    0x00006990   0x00000054   Code   RO         2257    i.rt_system_timer_thread_init  src_timer.o
    0x000069e4   0x00000050   Code   RO         2139    i.rt_thread_create  thread.o
    0x00006a34   0x0000000c   Code   RO         2140    i.rt_thread_delay   thread.o
    0x00006a40   0x00000058   Code   RO         2143    i.rt_thread_exit    thread.o
    0x00006a98   0x00000008   Code   RO         1602    i.rt_thread_idle_entry  idle.o
    0x00006aa0   0x0000007c   Code   RO         1603    i.rt_thread_idle_excute  idle.o
    0x00006b1c   0x0000003c   Code   RO         1605    i.rt_thread_idle_init  idle.o
    0x00006b58   0x0000002c   Code   RO         2145    i.rt_thread_init    thread.o
    0x00006b84   0x00000038   Code   RO         2146    i.rt_thread_resume  thread.o
    0x00006bbc   0x0000000c   Code   RO         2147    i.rt_thread_self    thread.o
    0x00006bc8   0x00000044   Code   RO         2148    i.rt_thread_sleep   thread.o
    0x00006c0c   0x00000030   Code   RO         2149    i.rt_thread_startup  thread.o
    0x00006c3c   0x00000036   Code   RO         2150    i.rt_thread_suspend  thread.o
    0x00006c72   0x00000020   Code   RO         2151    i.rt_thread_timeout  thread.o
    0x00006c92   0x00000002   PAD
    0x00006c94   0x00000048   Code   RO         2258    i.rt_thread_timer_entry  src_timer.o
    0x00006cdc   0x00000060   Code   RO         2152    i.rt_thread_yield   thread.o
    0x00006d3c   0x0000000c   Code   RO         1486    i.rt_tick_get       clock.o
    0x00006d48   0x00000030   Code   RO         1487    i.rt_tick_increase  clock.o
    0x00006d78   0x00000080   Code   RO         2259    i.rt_timer_check    src_timer.o
    0x00006df8   0x0000003c   Code   RO         2260    i.rt_timer_control  src_timer.o
    0x00006e34   0x00000020   Code   RO         2263    i.rt_timer_detach   src_timer.o
    0x00006e54   0x00000026   Code   RO         2264    i.rt_timer_init     src_timer.o
    0x00006e7a   0x0000001e   Code   RO         2265    i.rt_timer_list_next_timeout  src_timer.o
    0x00006e98   0x0000013c   Code   RO         2267    i.rt_timer_start    src_timer.o
    0x00006fd4   0x00000030   Code   RO         2268    i.rt_timer_stop     src_timer.o
    0x00007004   0x0000035c   Code   RO         1777    i.rt_vsnprintf      kservice.o
    0x00007360   0x00000004   Code   RO         3883    i.rti_board_end     components.o
    0x00007364   0x00000004   Code   RO         3884    i.rti_board_start   components.o
    0x00007368   0x00000004   Code   RO         3885    i.rti_end           components.o
    0x0000736c   0x00000004   Code   RO         3886    i.rti_start         components.o
    0x00007370   0x00000030   Code   RO         2873    i.shell_auto_complete  shell.o
    0x000073a0   0x00000030   Code   RO         2966    i.show_wait_queue   cmd.o
    0x000073d0   0x00000024   Code   RO         1779    i.skip_atoi         kservice.o
    0x000073f4   0x00000024   Code   RO         2967    i.str_common        cmd.o
    0x00007418   0x00000024   Code   RO         2968    i.str_is_prefix     cmd.o
    0x0000743c   0x00000030   Code   RO            6    i.thread_entry      startup.o
    0x0000746c   0x00000076   Code   RO         3801    i.token_get_string  finsh_token.o
    0x000074e2   0x00000002   PAD
    0x000074e4   0x00000038   Code   RO         3802    i.token_match_name  finsh_token.o
    0x0000751c   0x00000040   Code   RO         3803    i.token_next_char   finsh_token.o
    0x0000755c   0x0000001a   Code   RO         3804    i.token_prev_char   finsh_token.o
    0x00007576   0x000000a2   Code   RO         3805    i.token_proc_char   finsh_token.o
    0x00007618   0x000000da   Code   RO         3806    i.token_proc_escape  finsh_token.o
    0x000076f2   0x00000120   Code   RO         3807    i.token_proc_number  finsh_token.o
    0x00007812   0x00000052   Code   RO         3808    i.token_proc_string  finsh_token.o
    0x00007864   0x000001a2   Code   RO         3809    i.token_run         finsh_token.o
    0x00007a06   0x0000009c   Code   RO         3810    i.token_spec_number  finsh_token.o
    0x00007aa2   0x00000022   Code   RO         3811    i.token_trim_space  finsh_token.o
    0x00007ac4   0x0000000a   Code   RO         2969    i.version           cmd.o
    0x00007ace   0x00000002   PAD
    0x00007ad0   0x00000020   Data   RO          367    .constdata          system_m051series.o
    0x00007af0   0x00000030   Data   RO         1339    .constdata          uart.o
    0x00007b20   0x00000122   Data   RO         1781    .constdata          kservice.o
    0x00007c42   0x00000002   PAD
    0x00007c44   0x00000050   Data   RO         2970    .constdata          cmd.o
    0x00007c94   0x000000c4   Data   RO         3343    .constdata          finsh_ops.o
    0x00007d58   0x00000040   Data   RO         3812    .constdata          finsh_token.o
    0x00007d98   0x00000081   Data   RO         4255    .constdata          mc_p.l(ctype_o.o)
    0x00007e19   0x00000003   PAD
    0x00007e1c   0x00000004   Data   RO         4256    .constdata          mc_p.l(ctype_o.o)
    0x00007e20   0x0000015d   Data   RO         2971    .conststring        cmd.o
    0x00007f7d   0x00000003   PAD
    0x00007f80   0x000000f3   Data   RO         3119    .conststring        finsh_error.o
    0x00008073   0x00000001   PAD
    0x00008074   0x0000003e   Data   RO         3813    .conststring        finsh_token.o
    0x000080b2   0x00000027   Data   RO         1949    .rodata.name        mem.o
    0x000080d9   0x000000fb   Data   RO         2973    .rodata.name        cmd.o
    0x000081d4   0x00000004   Data   RO         3887    .rti_fn.0           components.o
    0x000081d8   0x00000004   Data   RO         3888    .rti_fn.0.end       components.o
    0x000081dc   0x00000004   Data   RO         3889    .rti_fn.1.end       components.o
    0x000081e0   0x00000004   Data   RO          221    .rti_fn.2           led.o
    0x000081e4   0x00000004   Data   RO         2876    .rti_fn.3           shell.o
    0x000081e8   0x00000004   Data   RO         3890    .rti_fn.6.end       components.o
    0x000081ec   0x0000000c   Data   RO         1950    FSymTab             mem.o
    0x000081f8   0x00000054   Data   RO         2974    FSymTab             cmd.o
    0x0000824c   0x00000020   Data   RO         4290    Region$$Table       anon$$obj.o
    0x0000826c   0x00000010   Data   RO         2975    VSymTab             cmd.o


    Execution Region RW_IRAM1 (Base: 0x20000000, Size: 0x00000dd0, Max: 0x00001000, ABSOLUTE, COMPRESSED[0x00000060])

    Base Addr    Size         Type   Attr      Idx    E Section Name        Object

    0x20000000   0x00000008   Data   RW            7    .data               startup.o
    0x20000008   0x0000000c   Data   RW          368    .data               system_m051series.o
    0x20000014   0x00000004   Data   RW         1489    .data               clock.o
    0x20000018   0x00000001   Data   RW         1726    .data               irq.o
    0x20000019   0x00000003   PAD
    0x2000001c   0x00000008   Data   RW         1782    .data               kservice.o
    0x20000024   0x00000018   Data   RW         1948    .data               mem.o
    0x2000003c   0x00000040   Data   RW         2008    .data               object.o
    0x2000007c   0x00000018   Data   RW         2078    .data               scheduler.o
    0x20000094   0x00000014   Data   RW         2270    .data               src_timer.o
    0x200000a8   0x0000000c   Data   RW         2371    .data               cpuport.o
    0x200000b4   0x00000004   Data   RW         2875    .data               shell.o
    0x200000b8   0x00000010   Data   RW         2939    .data               symbol.o
    0x200000c8   0x00000004   Data   RW         2972    .data               cmd.o
    0x200000cc   0x00000008   Data   RW         3071    .data               finsh_compiler.o
    0x200000d4   0x00000040   Data   RW         3120    .data               finsh_error.o
    0x20000114   0x00000008   Data   RW         3158    .data               finsh_heap.o
    0x2000011c   0x00000004   Data   RW         3713    .data               finsh_var.o
    0x20000120   0x0000000c   Data   RW         3763    .data               finsh_vm.o
    0x2000012c   0x00000004   Data   RW         4223    .data               mc_p.l(stdout.o)
    0x20000130   0x00000004   Data   RW         4229    .data               mc_p.l(errno.o)
    0x20000134   0x00000054   Zero   RW          265    .bss                usart.o
    0x20000188   0x000000f8   Zero   RW         1606    .bss                idle.o
    0x20000280   0x00000040   Zero   RW         1780    .bss                kservice.o
    0x200002c0   0x00000020   Zero   RW         1947    .bss                mem.o
    0x200002e0   0x00000100   Zero   RW         2077    .bss                scheduler.o
    0x200003e0   0x00000278   Zero   RW         2269    .bss                src_timer.o
    0x20000658   0x00000278   Zero   RW         2874    .bss                shell.o
    0x200008d0   0x00000080   Zero   RW         3157    .bss                finsh_heap.o
    0x20000950   0x00000140   Zero   RW         3246    .bss                finsh_node.o
    0x20000a90   0x000000c0   Zero   RW         3712    .bss                finsh_var.o
    0x20000b50   0x00000180   Zero   RW         3762    .bss                finsh_vm.o
    0x20000cd0   0x00000100   Zero   RW         1477    STACK               startup_m051series.o


==============================================================================

Image component sizes


      Code (inc. data)   RO Data    RW Data    ZI Data      Debug   Object Name

       220         30          0          0          0      13292   board.o
       740         96          0          0          0       5002   clk.o
        60         10          0          4          0       1049   clock.o
      2252        792        780          4          0      13810   cmd.o
        74          0          0          0          0       2073   completion.o
        44          8         16          0          0       2757   components.o
       216         32          0          0          0        756   context_rvds.o
       308        166          0         12          0       2410   cpuport.o
       368          0          0          0          0       5257   dataqueue.o
       456         60          0          0          0       4445   device.o
        28          0          0          0          0         76   ebi.o
      6334        166          0          8          0      11522   finsh_compiler.o
        56         22        243         64          0       2567   finsh_error.o
       568         42          0          8        128       5647   finsh_heap.o
        64          6          0          0          0       1984   finsh_init.o
       404          8          0          0        320       5690   finsh_node.o
      3070        290        196          0          0      24226   finsh_ops.o
      2418         38          0          0          0      15855   finsh_parser.o
      1668         20        126          0          0       9914   finsh_token.o
       284         30          0          4        192       7742   finsh_var.o
       176         36          0         12        384       7003   finsh_vm.o
        46          0          0          0          0        923   gpio.o
       212         32          0          0        248       3506   idle.o
       366          0          0          0          0       5389   ipc.o
        76         18          0          1          0       1814   irq.o
      2040        184        290          8         64      11684   kservice.o
        20          4          4          0          0       1016   led.o
       972        238         51         24         32       4243   mem.o
       242         10          0         64          0       5246   object.o
        80          4          0          0          0      53189   printf.o
       506         88          0         24        256       6126   scheduler.o
       538          0          0          0          0       3463   serial.o
      1864        224          4          4        632       5575   shell.o
      1110         80          0         20        632      10534   src_timer.o
       576        148          0          8          0      74153   startup.o
        76         32        192          0        256        688   startup_m051series.o
         0          0          0         16          0       4305   symbol.o
        52          6          0          0          0        470   sys.o
       408         68         32         12          0       9167   system_m051series.o
       754         40          0          0          0       9339   thread.o
       276         34         48          0          0       1904   uart.o
        40          8          0          0         84       5437   usart.o

    ----------------------------------------------------------------------
     30100       3070       2020        300       3228     361248   Object Totals
         0          0         32          0          0          0   (incl. Generated)
        38          0          6          3          0          0   (incl. Padding)

    ----------------------------------------------------------------------

      Code (inc. data)   RO Data    RW Data    ZI Data      Debug   Library Member Name

        86          0          0          0          0          0   __dczerorl2.o
        30          0          0          0          0         60   _chval.o
       166          0          0          0          0         84   _strtoul.o
        26          0          0          0          0         72   atoi.o
         8          4        133          0          0         60   ctype_o.o
         0          0          0          0          0          0   entry.o
         0          0          0          0          0          0   entry10a.o
         0          0          0          0          0          0   entry11a.o
         8          4          0          0          0          0   entry2.o
         4          0          0          0          0          0   entry5.o
         0          0          0          0          0          0   entry7b.o
         0          0          0          0          0          0   entry8b.o
         8          4          0          0          0          0   entry9a.o
         8          4          0          4          0         60   errno.o
        30          0          0          0          0          0   handlers.o
        40          0          0          0          0         72   idiv.o
        36          8          0          0          0         68   init.o
        36          0          0          0          0         60   memcpya.o
        36          0          0          0          0        100   memseta.o
       368         12          0          0          0        168   printf1.o
         0          0          0          4          0          0   stdout.o
        28          0          0          0          0         68   strcmp.o
        14          0          0          0          0         60   strlen.o
        30          0          0          0          0         72   strncmp.o
        26          0          0          0          0         68   strncpy.o
       112          4          0          0          0         76   strtol.o
        44          0          0          0          0         72   uidiv.o

    ----------------------------------------------------------------------
      1148         40        136          8          0       1220   Library Totals
         4          0          3          0          0          0   (incl. Padding)

    ----------------------------------------------------------------------

      Code (inc. data)   RO Data    RW Data    ZI Data      Debug   Library Name

      1144         40        133          8          0       1220   mc_p.l

    ----------------------------------------------------------------------
      1148         40        136          8          0       1220   Library Totals

    ----------------------------------------------------------------------

==============================================================================


      Code (inc. data)   RO Data    RW Data    ZI Data      Debug   

     31248       3110       2156        308       3228     350540   Grand Totals
     31248       3110       2156         96       3228     350540   ELF Image Totals (compressed)
     31248       3110       2156         96          0          0   ROM Totals

==============================================================================

    Total RO  Size (Code + RO Data)                33404 (  32.62kB)
    Total RW  Size (RW Data + ZI Data)              3536 (   3.45kB)
    Total ROM Size (Code + RO Data + RW Data)      33500 (  32.71kB)

==============================================================================

